   1              		.syntax unified
   2              		.cpu cortex-m3
   3              		.fpu softvfp
   4              		.eabi_attribute 20, 1
   5              		.eabi_attribute 21, 1
   6              		.eabi_attribute 23, 3
   7              		.eabi_attribute 24, 1
   8              		.eabi_attribute 25, 1
   9              		.eabi_attribute 26, 1
  10              		.eabi_attribute 30, 6
  11              		.eabi_attribute 18, 4
  12              		.thumb
  13              		.file	"stm32f10x_i2c.c"
  23              	.Ltext0:
  24              		.file 1 "../StdPeripheralDriver/src/stm32f10x_i2c.c"
 17960              		.align	2
 17961              		.global	I2C_DeInit
 17962              		.thumb
 17963              		.thumb_func
 17965              	I2C_DeInit:
 17966              	.LFB29:
   1:../StdPeripheralDriver/src/stm32f10x_i2c.c **** /**
   2:../StdPeripheralDriver/src/stm32f10x_i2c.c ****   ******************************************************************************
   3:../StdPeripheralDriver/src/stm32f10x_i2c.c ****   * @file    stm32f10x_i2c.c
   4:../StdPeripheralDriver/src/stm32f10x_i2c.c ****   * @author  MCD Application Team
   5:../StdPeripheralDriver/src/stm32f10x_i2c.c ****   * @version V3.5.0
   6:../StdPeripheralDriver/src/stm32f10x_i2c.c ****   * @date    11-March-2011
   7:../StdPeripheralDriver/src/stm32f10x_i2c.c ****   * @brief   This file provides all the I2C firmware functions.
   8:../StdPeripheralDriver/src/stm32f10x_i2c.c ****   ******************************************************************************
   9:../StdPeripheralDriver/src/stm32f10x_i2c.c ****   * @attention
  10:../StdPeripheralDriver/src/stm32f10x_i2c.c ****   *
  11:../StdPeripheralDriver/src/stm32f10x_i2c.c ****   * THE PRESENT FIRMWARE WHICH IS FOR GUIDANCE ONLY AIMS AT PROVIDING CUSTOMERS
  12:../StdPeripheralDriver/src/stm32f10x_i2c.c ****   * WITH CODING INFORMATION REGARDING THEIR PRODUCTS IN ORDER FOR THEM TO SAVE
  13:../StdPeripheralDriver/src/stm32f10x_i2c.c ****   * TIME. AS A RESULT, STMICROELECTRONICS SHALL NOT BE HELD LIABLE FOR ANY
  14:../StdPeripheralDriver/src/stm32f10x_i2c.c ****   * DIRECT, INDIRECT OR CONSEQUENTIAL DAMAGES WITH RESPECT TO ANY CLAIMS ARISING
  15:../StdPeripheralDriver/src/stm32f10x_i2c.c ****   * FROM THE CONTENT OF SUCH FIRMWARE AND/OR THE USE MADE BY CUSTOMERS OF THE
  16:../StdPeripheralDriver/src/stm32f10x_i2c.c ****   * CODING INFORMATION CONTAINED HEREIN IN CONNECTION WITH THEIR PRODUCTS.
  17:../StdPeripheralDriver/src/stm32f10x_i2c.c ****   *
  18:../StdPeripheralDriver/src/stm32f10x_i2c.c ****   * <h2><center>&copy; COPYRIGHT 2011 STMicroelectronics</center></h2>
  19:../StdPeripheralDriver/src/stm32f10x_i2c.c ****   ******************************************************************************
  20:../StdPeripheralDriver/src/stm32f10x_i2c.c ****   */
  21:../StdPeripheralDriver/src/stm32f10x_i2c.c **** 
  22:../StdPeripheralDriver/src/stm32f10x_i2c.c **** /* Includes ------------------------------------------------------------------*/
  23:../StdPeripheralDriver/src/stm32f10x_i2c.c **** #include "stm32f10x_i2c.h"
  24:../StdPeripheralDriver/src/stm32f10x_i2c.c **** #include "stm32f10x_rcc.h"
  25:../StdPeripheralDriver/src/stm32f10x_i2c.c **** 
  26:../StdPeripheralDriver/src/stm32f10x_i2c.c **** 
  27:../StdPeripheralDriver/src/stm32f10x_i2c.c **** /** @addtogroup STM32F10x_StdPeriph_Driver
  28:../StdPeripheralDriver/src/stm32f10x_i2c.c ****   * @{
  29:../StdPeripheralDriver/src/stm32f10x_i2c.c ****   */
  30:../StdPeripheralDriver/src/stm32f10x_i2c.c **** 
  31:../StdPeripheralDriver/src/stm32f10x_i2c.c **** /** @defgroup I2C 
  32:../StdPeripheralDriver/src/stm32f10x_i2c.c ****   * @brief I2C driver modules
  33:../StdPeripheralDriver/src/stm32f10x_i2c.c ****   * @{
  34:../StdPeripheralDriver/src/stm32f10x_i2c.c ****   */ 
  35:../StdPeripheralDriver/src/stm32f10x_i2c.c **** 
  36:../StdPeripheralDriver/src/stm32f10x_i2c.c **** /** @defgroup I2C_Private_TypesDefinitions
  37:../StdPeripheralDriver/src/stm32f10x_i2c.c ****   * @{
  38:../StdPeripheralDriver/src/stm32f10x_i2c.c ****   */
  39:../StdPeripheralDriver/src/stm32f10x_i2c.c **** 
  40:../StdPeripheralDriver/src/stm32f10x_i2c.c **** /**
  41:../StdPeripheralDriver/src/stm32f10x_i2c.c ****   * @}
  42:../StdPeripheralDriver/src/stm32f10x_i2c.c ****   */
  43:../StdPeripheralDriver/src/stm32f10x_i2c.c **** 
  44:../StdPeripheralDriver/src/stm32f10x_i2c.c **** /** @defgroup I2C_Private_Defines
  45:../StdPeripheralDriver/src/stm32f10x_i2c.c ****   * @{
  46:../StdPeripheralDriver/src/stm32f10x_i2c.c ****   */
  47:../StdPeripheralDriver/src/stm32f10x_i2c.c **** 
  48:../StdPeripheralDriver/src/stm32f10x_i2c.c **** /* I2C SPE mask */
  49:../StdPeripheralDriver/src/stm32f10x_i2c.c **** #define CR1_PE_Set              ((uint16_t)0x0001)
  50:../StdPeripheralDriver/src/stm32f10x_i2c.c **** #define CR1_PE_Reset            ((uint16_t)0xFFFE)
  51:../StdPeripheralDriver/src/stm32f10x_i2c.c **** 
  52:../StdPeripheralDriver/src/stm32f10x_i2c.c **** /* I2C START mask */
  53:../StdPeripheralDriver/src/stm32f10x_i2c.c **** #define CR1_START_Set           ((uint16_t)0x0100)
  54:../StdPeripheralDriver/src/stm32f10x_i2c.c **** #define CR1_START_Reset         ((uint16_t)0xFEFF)
  55:../StdPeripheralDriver/src/stm32f10x_i2c.c **** 
  56:../StdPeripheralDriver/src/stm32f10x_i2c.c **** /* I2C STOP mask */
  57:../StdPeripheralDriver/src/stm32f10x_i2c.c **** #define CR1_STOP_Set            ((uint16_t)0x0200)
  58:../StdPeripheralDriver/src/stm32f10x_i2c.c **** #define CR1_STOP_Reset          ((uint16_t)0xFDFF)
  59:../StdPeripheralDriver/src/stm32f10x_i2c.c **** 
  60:../StdPeripheralDriver/src/stm32f10x_i2c.c **** /* I2C ACK mask */
  61:../StdPeripheralDriver/src/stm32f10x_i2c.c **** #define CR1_ACK_Set             ((uint16_t)0x0400)
  62:../StdPeripheralDriver/src/stm32f10x_i2c.c **** #define CR1_ACK_Reset           ((uint16_t)0xFBFF)
  63:../StdPeripheralDriver/src/stm32f10x_i2c.c **** 
  64:../StdPeripheralDriver/src/stm32f10x_i2c.c **** /* I2C ENGC mask */
  65:../StdPeripheralDriver/src/stm32f10x_i2c.c **** #define CR1_ENGC_Set            ((uint16_t)0x0040)
  66:../StdPeripheralDriver/src/stm32f10x_i2c.c **** #define CR1_ENGC_Reset          ((uint16_t)0xFFBF)
  67:../StdPeripheralDriver/src/stm32f10x_i2c.c **** 
  68:../StdPeripheralDriver/src/stm32f10x_i2c.c **** /* I2C SWRST mask */
  69:../StdPeripheralDriver/src/stm32f10x_i2c.c **** #define CR1_SWRST_Set           ((uint16_t)0x8000)
  70:../StdPeripheralDriver/src/stm32f10x_i2c.c **** #define CR1_SWRST_Reset         ((uint16_t)0x7FFF)
  71:../StdPeripheralDriver/src/stm32f10x_i2c.c **** 
  72:../StdPeripheralDriver/src/stm32f10x_i2c.c **** /* I2C PEC mask */
  73:../StdPeripheralDriver/src/stm32f10x_i2c.c **** #define CR1_PEC_Set             ((uint16_t)0x1000)
  74:../StdPeripheralDriver/src/stm32f10x_i2c.c **** #define CR1_PEC_Reset           ((uint16_t)0xEFFF)
  75:../StdPeripheralDriver/src/stm32f10x_i2c.c **** 
  76:../StdPeripheralDriver/src/stm32f10x_i2c.c **** /* I2C ENPEC mask */
  77:../StdPeripheralDriver/src/stm32f10x_i2c.c **** #define CR1_ENPEC_Set           ((uint16_t)0x0020)
  78:../StdPeripheralDriver/src/stm32f10x_i2c.c **** #define CR1_ENPEC_Reset         ((uint16_t)0xFFDF)
  79:../StdPeripheralDriver/src/stm32f10x_i2c.c **** 
  80:../StdPeripheralDriver/src/stm32f10x_i2c.c **** /* I2C ENARP mask */
  81:../StdPeripheralDriver/src/stm32f10x_i2c.c **** #define CR1_ENARP_Set           ((uint16_t)0x0010)
  82:../StdPeripheralDriver/src/stm32f10x_i2c.c **** #define CR1_ENARP_Reset         ((uint16_t)0xFFEF)
  83:../StdPeripheralDriver/src/stm32f10x_i2c.c **** 
  84:../StdPeripheralDriver/src/stm32f10x_i2c.c **** /* I2C NOSTRETCH mask */
  85:../StdPeripheralDriver/src/stm32f10x_i2c.c **** #define CR1_NOSTRETCH_Set       ((uint16_t)0x0080)
  86:../StdPeripheralDriver/src/stm32f10x_i2c.c **** #define CR1_NOSTRETCH_Reset     ((uint16_t)0xFF7F)
  87:../StdPeripheralDriver/src/stm32f10x_i2c.c **** 
  88:../StdPeripheralDriver/src/stm32f10x_i2c.c **** /* I2C registers Masks */
  89:../StdPeripheralDriver/src/stm32f10x_i2c.c **** #define CR1_CLEAR_Mask          ((uint16_t)0xFBF5)
  90:../StdPeripheralDriver/src/stm32f10x_i2c.c **** 
  91:../StdPeripheralDriver/src/stm32f10x_i2c.c **** /* I2C DMAEN mask */
  92:../StdPeripheralDriver/src/stm32f10x_i2c.c **** #define CR2_DMAEN_Set           ((uint16_t)0x0800)
  93:../StdPeripheralDriver/src/stm32f10x_i2c.c **** #define CR2_DMAEN_Reset         ((uint16_t)0xF7FF)
  94:../StdPeripheralDriver/src/stm32f10x_i2c.c **** 
  95:../StdPeripheralDriver/src/stm32f10x_i2c.c **** /* I2C LAST mask */
  96:../StdPeripheralDriver/src/stm32f10x_i2c.c **** #define CR2_LAST_Set            ((uint16_t)0x1000)
  97:../StdPeripheralDriver/src/stm32f10x_i2c.c **** #define CR2_LAST_Reset          ((uint16_t)0xEFFF)
  98:../StdPeripheralDriver/src/stm32f10x_i2c.c **** 
  99:../StdPeripheralDriver/src/stm32f10x_i2c.c **** /* I2C FREQ mask */
 100:../StdPeripheralDriver/src/stm32f10x_i2c.c **** #define CR2_FREQ_Reset          ((uint16_t)0xFFC0)
 101:../StdPeripheralDriver/src/stm32f10x_i2c.c **** 
 102:../StdPeripheralDriver/src/stm32f10x_i2c.c **** /* I2C ADD0 mask */
 103:../StdPeripheralDriver/src/stm32f10x_i2c.c **** #define OAR1_ADD0_Set           ((uint16_t)0x0001)
 104:../StdPeripheralDriver/src/stm32f10x_i2c.c **** #define OAR1_ADD0_Reset         ((uint16_t)0xFFFE)
 105:../StdPeripheralDriver/src/stm32f10x_i2c.c **** 
 106:../StdPeripheralDriver/src/stm32f10x_i2c.c **** /* I2C ENDUAL mask */
 107:../StdPeripheralDriver/src/stm32f10x_i2c.c **** #define OAR2_ENDUAL_Set         ((uint16_t)0x0001)
 108:../StdPeripheralDriver/src/stm32f10x_i2c.c **** #define OAR2_ENDUAL_Reset       ((uint16_t)0xFFFE)
 109:../StdPeripheralDriver/src/stm32f10x_i2c.c **** 
 110:../StdPeripheralDriver/src/stm32f10x_i2c.c **** /* I2C ADD2 mask */
 111:../StdPeripheralDriver/src/stm32f10x_i2c.c **** #define OAR2_ADD2_Reset         ((uint16_t)0xFF01)
 112:../StdPeripheralDriver/src/stm32f10x_i2c.c **** 
 113:../StdPeripheralDriver/src/stm32f10x_i2c.c **** /* I2C F/S mask */
 114:../StdPeripheralDriver/src/stm32f10x_i2c.c **** #define CCR_FS_Set              ((uint16_t)0x8000)
 115:../StdPeripheralDriver/src/stm32f10x_i2c.c **** 
 116:../StdPeripheralDriver/src/stm32f10x_i2c.c **** /* I2C CCR mask */
 117:../StdPeripheralDriver/src/stm32f10x_i2c.c **** #define CCR_CCR_Set             ((uint16_t)0x0FFF)
 118:../StdPeripheralDriver/src/stm32f10x_i2c.c **** 
 119:../StdPeripheralDriver/src/stm32f10x_i2c.c **** /* I2C FLAG mask */
 120:../StdPeripheralDriver/src/stm32f10x_i2c.c **** #define FLAG_Mask               ((uint32_t)0x00FFFFFF)
 121:../StdPeripheralDriver/src/stm32f10x_i2c.c **** 
 122:../StdPeripheralDriver/src/stm32f10x_i2c.c **** /* I2C Interrupt Enable mask */
 123:../StdPeripheralDriver/src/stm32f10x_i2c.c **** #define ITEN_Mask               ((uint32_t)0x07000000)
 124:../StdPeripheralDriver/src/stm32f10x_i2c.c **** 
 125:../StdPeripheralDriver/src/stm32f10x_i2c.c **** /**
 126:../StdPeripheralDriver/src/stm32f10x_i2c.c ****   * @}
 127:../StdPeripheralDriver/src/stm32f10x_i2c.c ****   */
 128:../StdPeripheralDriver/src/stm32f10x_i2c.c **** 
 129:../StdPeripheralDriver/src/stm32f10x_i2c.c **** /** @defgroup I2C_Private_Macros
 130:../StdPeripheralDriver/src/stm32f10x_i2c.c ****   * @{
 131:../StdPeripheralDriver/src/stm32f10x_i2c.c ****   */
 132:../StdPeripheralDriver/src/stm32f10x_i2c.c **** 
 133:../StdPeripheralDriver/src/stm32f10x_i2c.c **** /**
 134:../StdPeripheralDriver/src/stm32f10x_i2c.c ****   * @}
 135:../StdPeripheralDriver/src/stm32f10x_i2c.c ****   */
 136:../StdPeripheralDriver/src/stm32f10x_i2c.c **** 
 137:../StdPeripheralDriver/src/stm32f10x_i2c.c **** /** @defgroup I2C_Private_Variables
 138:../StdPeripheralDriver/src/stm32f10x_i2c.c ****   * @{
 139:../StdPeripheralDriver/src/stm32f10x_i2c.c ****   */
 140:../StdPeripheralDriver/src/stm32f10x_i2c.c **** 
 141:../StdPeripheralDriver/src/stm32f10x_i2c.c **** /**
 142:../StdPeripheralDriver/src/stm32f10x_i2c.c ****   * @}
 143:../StdPeripheralDriver/src/stm32f10x_i2c.c ****   */
 144:../StdPeripheralDriver/src/stm32f10x_i2c.c **** 
 145:../StdPeripheralDriver/src/stm32f10x_i2c.c **** /** @defgroup I2C_Private_FunctionPrototypes
 146:../StdPeripheralDriver/src/stm32f10x_i2c.c ****   * @{
 147:../StdPeripheralDriver/src/stm32f10x_i2c.c ****   */
 148:../StdPeripheralDriver/src/stm32f10x_i2c.c **** 
 149:../StdPeripheralDriver/src/stm32f10x_i2c.c **** /**
 150:../StdPeripheralDriver/src/stm32f10x_i2c.c ****   * @}
 151:../StdPeripheralDriver/src/stm32f10x_i2c.c ****   */
 152:../StdPeripheralDriver/src/stm32f10x_i2c.c **** 
 153:../StdPeripheralDriver/src/stm32f10x_i2c.c **** /** @defgroup I2C_Private_Functions
 154:../StdPeripheralDriver/src/stm32f10x_i2c.c ****   * @{
 155:../StdPeripheralDriver/src/stm32f10x_i2c.c ****   */
 156:../StdPeripheralDriver/src/stm32f10x_i2c.c **** 
 157:../StdPeripheralDriver/src/stm32f10x_i2c.c **** /**
 158:../StdPeripheralDriver/src/stm32f10x_i2c.c ****   * @brief  Deinitializes the I2Cx peripheral registers to their default reset values.
 159:../StdPeripheralDriver/src/stm32f10x_i2c.c ****   * @param  I2Cx: where x can be 1 or 2 to select the I2C peripheral.
 160:../StdPeripheralDriver/src/stm32f10x_i2c.c ****   * @retval None
 161:../StdPeripheralDriver/src/stm32f10x_i2c.c ****   */
 162:../StdPeripheralDriver/src/stm32f10x_i2c.c **** void I2C_DeInit(I2C_TypeDef* I2Cx)
 163:../StdPeripheralDriver/src/stm32f10x_i2c.c **** {
 17967              		.loc 1 163 0
 17968              		.cfi_startproc
 17969              		@ args = 0, pretend = 0, frame = 8
 17970              		@ frame_needed = 1, uses_anonymous_args = 0
 17971 0000 80B5     		push	{r7, lr}
 17972              	.LCFI0:
 17973              		.cfi_def_cfa_offset 8
 17974 0002 82B0     		sub	sp, sp, #8
 17975              	.LCFI1:
 17976              		.cfi_def_cfa_offset 16
 17977 0004 00AF     		add	r7, sp, #0
 17978              		.cfi_offset 14, -4
 17979              		.cfi_offset 7, -8
 17980              	.LCFI2:
 17981              		.cfi_def_cfa_register 7
 17982 0006 7860     		str	r0, [r7, #4]
 164:../StdPeripheralDriver/src/stm32f10x_i2c.c ****   /* Check the parameters */
 165:../StdPeripheralDriver/src/stm32f10x_i2c.c ****   assert_param(IS_I2C_ALL_PERIPH(I2Cx));
 166:../StdPeripheralDriver/src/stm32f10x_i2c.c **** 
 167:../StdPeripheralDriver/src/stm32f10x_i2c.c ****   if (I2Cx == I2C1)
 17983              		.loc 1 167 0
 17984 0008 7A68     		ldr	r2, [r7, #4]
 17985 000a 104B     		ldr	r3, .L4
 17986 000c 9A42     		cmp	r2, r3
 17987 000e 0CD1     		bne	.L2
 168:../StdPeripheralDriver/src/stm32f10x_i2c.c ****   {
 169:../StdPeripheralDriver/src/stm32f10x_i2c.c ****     /* Enable I2C1 reset state */
 170:../StdPeripheralDriver/src/stm32f10x_i2c.c ****     RCC_APB1PeriphResetCmd(RCC_APB1Periph_I2C1, ENABLE);
 17988              		.loc 1 170 0
 17989 0010 4FF40010 		mov	r0, #2097152
 17990 0014 4FF00101 		mov	r1, #1
 17991 0018 FFF7FEFF 		bl	RCC_APB1PeriphResetCmd
 171:../StdPeripheralDriver/src/stm32f10x_i2c.c ****     /* Release I2C1 from reset state */
 172:../StdPeripheralDriver/src/stm32f10x_i2c.c ****     RCC_APB1PeriphResetCmd(RCC_APB1Periph_I2C1, DISABLE);
 17992              		.loc 1 172 0
 17993 001c 4FF40010 		mov	r0, #2097152
 17994 0020 4FF00001 		mov	r1, #0
 17995 0024 FFF7FEFF 		bl	RCC_APB1PeriphResetCmd
 17996 0028 0BE0     		b	.L1
 17997              	.L2:
 173:../StdPeripheralDriver/src/stm32f10x_i2c.c ****   }
 174:../StdPeripheralDriver/src/stm32f10x_i2c.c ****   else
 175:../StdPeripheralDriver/src/stm32f10x_i2c.c ****   {
 176:../StdPeripheralDriver/src/stm32f10x_i2c.c ****     /* Enable I2C2 reset state */
 177:../StdPeripheralDriver/src/stm32f10x_i2c.c ****     RCC_APB1PeriphResetCmd(RCC_APB1Periph_I2C2, ENABLE);
 17998              		.loc 1 177 0
 17999 002a 4FF48000 		mov	r0, #4194304
 18000 002e 4FF00101 		mov	r1, #1
 18001 0032 FFF7FEFF 		bl	RCC_APB1PeriphResetCmd
 178:../StdPeripheralDriver/src/stm32f10x_i2c.c ****     /* Release I2C2 from reset state */
 179:../StdPeripheralDriver/src/stm32f10x_i2c.c ****     RCC_APB1PeriphResetCmd(RCC_APB1Periph_I2C2, DISABLE);
 18002              		.loc 1 179 0
 18003 0036 4FF48000 		mov	r0, #4194304
 18004 003a 4FF00001 		mov	r1, #0
 18005 003e FFF7FEFF 		bl	RCC_APB1PeriphResetCmd
 18006              	.L1:
 180:../StdPeripheralDriver/src/stm32f10x_i2c.c ****   }
 181:../StdPeripheralDriver/src/stm32f10x_i2c.c **** }
 18007              		.loc 1 181 0
 18008 0042 07F10807 		add	r7, r7, #8
 18009 0046 BD46     		mov	sp, r7
 18010 0048 80BD     		pop	{r7, pc}
 18011              	.L5:
 18012 004a 00BF     		.align	2
 18013              	.L4:
 18014 004c 00540040 		.word	1073763328
 18015              		.cfi_endproc
 18016              	.LFE29:
 18018              		.section	.text.I2C_Init,"ax",%progbits
 18019              		.align	2
 18020              		.global	I2C_Init
 18021              		.thumb
 18022              		.thumb_func
 18024              	I2C_Init:
 18025              	.LFB30:
 182:../StdPeripheralDriver/src/stm32f10x_i2c.c **** 
 183:../StdPeripheralDriver/src/stm32f10x_i2c.c **** /**
 184:../StdPeripheralDriver/src/stm32f10x_i2c.c ****   * @brief  Initializes the I2Cx peripheral according to the specified 
 185:../StdPeripheralDriver/src/stm32f10x_i2c.c ****   *   parameters in the I2C_InitStruct.
 186:../StdPeripheralDriver/src/stm32f10x_i2c.c ****   * @param  I2Cx: where x can be 1 or 2 to select the I2C peripheral.
 187:../StdPeripheralDriver/src/stm32f10x_i2c.c ****   * @param  I2C_InitStruct: pointer to a I2C_InitTypeDef structure that
 188:../StdPeripheralDriver/src/stm32f10x_i2c.c ****   *   contains the configuration information for the specified I2C peripheral.
 189:../StdPeripheralDriver/src/stm32f10x_i2c.c ****   * @retval None
 190:../StdPeripheralDriver/src/stm32f10x_i2c.c ****   */
 191:../StdPeripheralDriver/src/stm32f10x_i2c.c **** void I2C_Init(I2C_TypeDef* I2Cx, I2C_InitTypeDef* I2C_InitStruct)
 192:../StdPeripheralDriver/src/stm32f10x_i2c.c **** {
 18026              		.loc 1 192 0
 18027              		.cfi_startproc
 18028              		@ args = 0, pretend = 0, frame = 40
 18029              		@ frame_needed = 1, uses_anonymous_args = 0
 18030 0000 80B5     		push	{r7, lr}
 18031              	.LCFI3:
 18032              		.cfi_def_cfa_offset 8
 18033 0002 8AB0     		sub	sp, sp, #40
 18034              	.LCFI4:
 18035              		.cfi_def_cfa_offset 48
 18036 0004 00AF     		add	r7, sp, #0
 18037              		.cfi_offset 14, -4
 18038              		.cfi_offset 7, -8
 18039              	.LCFI5:
 18040              		.cfi_def_cfa_register 7
 18041 0006 7860     		str	r0, [r7, #4]
 18042 0008 3960     		str	r1, [r7, #0]
 193:../StdPeripheralDriver/src/stm32f10x_i2c.c ****   uint16_t tmpreg = 0, freqrange = 0;
 18043              		.loc 1 193 0
 18044 000a 4FF00003 		mov	r3, #0
 18045 000e FB84     		strh	r3, [r7, #38]	@ movhi
 18046 0010 4FF00003 		mov	r3, #0
 18047 0014 7B84     		strh	r3, [r7, #34]	@ movhi
 194:../StdPeripheralDriver/src/stm32f10x_i2c.c ****   uint16_t result = 0x04;
 18048              		.loc 1 194 0
 18049 0016 4FF00403 		mov	r3, #4
 18050 001a BB84     		strh	r3, [r7, #36]	@ movhi
 195:../StdPeripheralDriver/src/stm32f10x_i2c.c ****   uint32_t pclk1 = 8000000;
 18051              		.loc 1 195 0
 18052 001c 604B     		ldr	r3, .L13
 18053 001e FB61     		str	r3, [r7, #28]
 196:../StdPeripheralDriver/src/stm32f10x_i2c.c ****   RCC_ClocksTypeDef  rcc_clocks;
 197:../StdPeripheralDriver/src/stm32f10x_i2c.c ****   /* Check the parameters */
 198:../StdPeripheralDriver/src/stm32f10x_i2c.c ****   assert_param(IS_I2C_ALL_PERIPH(I2Cx));
 199:../StdPeripheralDriver/src/stm32f10x_i2c.c ****   assert_param(IS_I2C_CLOCK_SPEED(I2C_InitStruct->I2C_ClockSpeed));
 200:../StdPeripheralDriver/src/stm32f10x_i2c.c ****   assert_param(IS_I2C_MODE(I2C_InitStruct->I2C_Mode));
 201:../StdPeripheralDriver/src/stm32f10x_i2c.c ****   assert_param(IS_I2C_DUTY_CYCLE(I2C_InitStruct->I2C_DutyCycle));
 202:../StdPeripheralDriver/src/stm32f10x_i2c.c ****   assert_param(IS_I2C_OWN_ADDRESS1(I2C_InitStruct->I2C_OwnAddress1));
 203:../StdPeripheralDriver/src/stm32f10x_i2c.c ****   assert_param(IS_I2C_ACK_STATE(I2C_InitStruct->I2C_Ack));
 204:../StdPeripheralDriver/src/stm32f10x_i2c.c ****   assert_param(IS_I2C_ACKNOWLEDGE_ADDRESS(I2C_InitStruct->I2C_AcknowledgedAddress));
 205:../StdPeripheralDriver/src/stm32f10x_i2c.c **** 
 206:../StdPeripheralDriver/src/stm32f10x_i2c.c **** /*---------------------------- I2Cx CR2 Configuration ------------------------*/
 207:../StdPeripheralDriver/src/stm32f10x_i2c.c ****   /* Get the I2Cx CR2 value */
 208:../StdPeripheralDriver/src/stm32f10x_i2c.c ****   tmpreg = I2Cx->CR2;
 18054              		.loc 1 208 0
 18055 0020 7B68     		ldr	r3, [r7, #4]
 18056 0022 9B88     		ldrh	r3, [r3, #4]	@ movhi
 18057 0024 FB84     		strh	r3, [r7, #38]	@ movhi
 209:../StdPeripheralDriver/src/stm32f10x_i2c.c ****   /* Clear frequency FREQ[5:0] bits */
 210:../StdPeripheralDriver/src/stm32f10x_i2c.c ****   tmpreg &= CR2_FREQ_Reset;
 18058              		.loc 1 210 0
 18059 0026 FB8C     		ldrh	r3, [r7, #38]	@ movhi
 18060 0028 23F03F03 		bic	r3, r3, #63
 18061 002c FB84     		strh	r3, [r7, #38]	@ movhi
 211:../StdPeripheralDriver/src/stm32f10x_i2c.c ****   /* Get pclk1 frequency value */
 212:../StdPeripheralDriver/src/stm32f10x_i2c.c ****   RCC_GetClocksFreq(&rcc_clocks);
 18062              		.loc 1 212 0
 18063 002e 07F10803 		add	r3, r7, #8
 18064 0032 1846     		mov	r0, r3
 18065 0034 FFF7FEFF 		bl	RCC_GetClocksFreq
 213:../StdPeripheralDriver/src/stm32f10x_i2c.c ****   pclk1 = rcc_clocks.PCLK1_Frequency;
 18066              		.loc 1 213 0
 18067 0038 3B69     		ldr	r3, [r7, #16]
 18068 003a FB61     		str	r3, [r7, #28]
 214:../StdPeripheralDriver/src/stm32f10x_i2c.c ****   /* Set frequency bits depending on pclk1 value */
 215:../StdPeripheralDriver/src/stm32f10x_i2c.c ****   freqrange = (uint16_t)(pclk1 / 1000000);
 18069              		.loc 1 215 0
 18070 003c FA69     		ldr	r2, [r7, #28]
 18071 003e 594B     		ldr	r3, .L13+4
 18072 0040 A3FB0213 		umull	r1, r3, r3, r2
 18073 0044 4FEA9343 		lsr	r3, r3, #18
 18074 0048 7B84     		strh	r3, [r7, #34]	@ movhi
 216:../StdPeripheralDriver/src/stm32f10x_i2c.c ****   tmpreg |= freqrange;
 18075              		.loc 1 216 0
 18076 004a FA8C     		ldrh	r2, [r7, #38]	@ movhi
 18077 004c 7B8C     		ldrh	r3, [r7, #34]	@ movhi
 18078 004e 42EA0303 		orr	r3, r2, r3
 18079 0052 FB84     		strh	r3, [r7, #38]	@ movhi
 217:../StdPeripheralDriver/src/stm32f10x_i2c.c ****   /* Write to I2Cx CR2 */
 218:../StdPeripheralDriver/src/stm32f10x_i2c.c ****   I2Cx->CR2 = tmpreg;
 18080              		.loc 1 218 0
 18081 0054 7B68     		ldr	r3, [r7, #4]
 18082 0056 FA8C     		ldrh	r2, [r7, #38]	@ movhi
 18083 0058 9A80     		strh	r2, [r3, #4]	@ movhi
 219:../StdPeripheralDriver/src/stm32f10x_i2c.c **** 
 220:../StdPeripheralDriver/src/stm32f10x_i2c.c **** /*---------------------------- I2Cx CCR Configuration ------------------------*/
 221:../StdPeripheralDriver/src/stm32f10x_i2c.c ****   /* Disable the selected I2C peripheral to configure TRISE */
 222:../StdPeripheralDriver/src/stm32f10x_i2c.c ****   I2Cx->CR1 &= CR1_PE_Reset;
 18084              		.loc 1 222 0
 18085 005a 7B68     		ldr	r3, [r7, #4]
 18086 005c 1B88     		ldrh	r3, [r3, #0]	@ movhi
 18087 005e 9BB2     		uxth	r3, r3
 18088 0060 23F00103 		bic	r3, r3, #1
 18089 0064 9AB2     		uxth	r2, r3
 18090 0066 7B68     		ldr	r3, [r7, #4]
 18091 0068 1A80     		strh	r2, [r3, #0]	@ movhi
 223:../StdPeripheralDriver/src/stm32f10x_i2c.c ****   /* Reset tmpreg value */
 224:../StdPeripheralDriver/src/stm32f10x_i2c.c ****   /* Clear F/S, DUTY and CCR[11:0] bits */
 225:../StdPeripheralDriver/src/stm32f10x_i2c.c ****   tmpreg = 0;
 18092              		.loc 1 225 0
 18093 006a 4FF00003 		mov	r3, #0
 18094 006e FB84     		strh	r3, [r7, #38]	@ movhi
 226:../StdPeripheralDriver/src/stm32f10x_i2c.c **** 
 227:../StdPeripheralDriver/src/stm32f10x_i2c.c ****   /* Configure speed in standard mode */
 228:../StdPeripheralDriver/src/stm32f10x_i2c.c ****   if (I2C_InitStruct->I2C_ClockSpeed <= 100000)
 18095              		.loc 1 228 0
 18096 0070 3B68     		ldr	r3, [r7, #0]
 18097 0072 1A68     		ldr	r2, [r3, #0]
 18098 0074 4C4B     		ldr	r3, .L13+8
 18099 0076 9A42     		cmp	r2, r3
 18100 0078 19D8     		bhi	.L7
 229:../StdPeripheralDriver/src/stm32f10x_i2c.c ****   {
 230:../StdPeripheralDriver/src/stm32f10x_i2c.c ****     /* Standard mode speed calculate */
 231:../StdPeripheralDriver/src/stm32f10x_i2c.c ****     result = (uint16_t)(pclk1 / (I2C_InitStruct->I2C_ClockSpeed << 1));
 18101              		.loc 1 231 0
 18102 007a 3B68     		ldr	r3, [r7, #0]
 18103 007c 1B68     		ldr	r3, [r3, #0]
 18104 007e 4FEA4303 		lsl	r3, r3, #1
 18105 0082 FA69     		ldr	r2, [r7, #28]
 18106 0084 B2FBF3F3 		udiv	r3, r2, r3
 18107 0088 BB84     		strh	r3, [r7, #36]	@ movhi
 232:../StdPeripheralDriver/src/stm32f10x_i2c.c ****     /* Test if CCR value is under 0x4*/
 233:../StdPeripheralDriver/src/stm32f10x_i2c.c ****     if (result < 0x04)
 18108              		.loc 1 233 0
 18109 008a BB8C     		ldrh	r3, [r7, #36]
 18110 008c 032B     		cmp	r3, #3
 18111 008e 02D8     		bhi	.L8
 234:../StdPeripheralDriver/src/stm32f10x_i2c.c ****     {
 235:../StdPeripheralDriver/src/stm32f10x_i2c.c ****       /* Set minimum allowed value */
 236:../StdPeripheralDriver/src/stm32f10x_i2c.c ****       result = 0x04;  
 18112              		.loc 1 236 0
 18113 0090 4FF00403 		mov	r3, #4
 18114 0094 BB84     		strh	r3, [r7, #36]	@ movhi
 18115              	.L8:
 237:../StdPeripheralDriver/src/stm32f10x_i2c.c ****     }
 238:../StdPeripheralDriver/src/stm32f10x_i2c.c ****     /* Set speed value for standard mode */
 239:../StdPeripheralDriver/src/stm32f10x_i2c.c ****     tmpreg |= result;	  
 18116              		.loc 1 239 0
 18117 0096 FA8C     		ldrh	r2, [r7, #38]	@ movhi
 18118 0098 BB8C     		ldrh	r3, [r7, #36]	@ movhi
 18119 009a 42EA0303 		orr	r3, r2, r3
 18120 009e FB84     		strh	r3, [r7, #38]	@ movhi
 240:../StdPeripheralDriver/src/stm32f10x_i2c.c ****     /* Set Maximum Rise Time for standard mode */
 241:../StdPeripheralDriver/src/stm32f10x_i2c.c ****     I2Cx->TRISE = freqrange + 1; 
 18121              		.loc 1 241 0
 18122 00a0 7B8C     		ldrh	r3, [r7, #34]	@ movhi
 18123 00a2 03F10103 		add	r3, r3, #1
 18124 00a6 9AB2     		uxth	r2, r3
 18125 00a8 7B68     		ldr	r3, [r7, #4]
 18126 00aa 1A84     		strh	r2, [r3, #32]	@ movhi
 18127 00ac 49E0     		b	.L9
 18128              	.L7:
 242:../StdPeripheralDriver/src/stm32f10x_i2c.c ****   }
 243:../StdPeripheralDriver/src/stm32f10x_i2c.c ****   /* Configure speed in fast mode */
 244:../StdPeripheralDriver/src/stm32f10x_i2c.c ****   else /*(I2C_InitStruct->I2C_ClockSpeed <= 400000)*/
 245:../StdPeripheralDriver/src/stm32f10x_i2c.c ****   {
 246:../StdPeripheralDriver/src/stm32f10x_i2c.c ****     if (I2C_InitStruct->I2C_DutyCycle == I2C_DutyCycle_2)
 18129              		.loc 1 246 0
 18130 00ae 3B68     		ldr	r3, [r7, #0]
 18131 00b0 DA88     		ldrh	r2, [r3, #6]
 18132 00b2 4BF6FF73 		movw	r3, #49151
 18133 00b6 9A42     		cmp	r2, r3
 18134 00b8 0AD1     		bne	.L10
 247:../StdPeripheralDriver/src/stm32f10x_i2c.c ****     {
 248:../StdPeripheralDriver/src/stm32f10x_i2c.c ****       /* Fast mode speed calculate: Tlow/Thigh = 2 */
 249:../StdPeripheralDriver/src/stm32f10x_i2c.c ****       result = (uint16_t)(pclk1 / (I2C_InitStruct->I2C_ClockSpeed * 3));
 18135              		.loc 1 249 0
 18136 00ba 3B68     		ldr	r3, [r7, #0]
 18137 00bc 1A68     		ldr	r2, [r3, #0]
 18138 00be 1346     		mov	r3, r2
 18139 00c0 4FEA4303 		lsl	r3, r3, #1
 18140 00c4 9B18     		adds	r3, r3, r2
 18141 00c6 FA69     		ldr	r2, [r7, #28]
 18142 00c8 B2FBF3F3 		udiv	r3, r2, r3
 18143 00cc BB84     		strh	r3, [r7, #36]	@ movhi
 18144 00ce 10E0     		b	.L11
 18145              	.L10:
 250:../StdPeripheralDriver/src/stm32f10x_i2c.c ****     }
 251:../StdPeripheralDriver/src/stm32f10x_i2c.c ****     else /*I2C_InitStruct->I2C_DutyCycle == I2C_DutyCycle_16_9*/
 252:../StdPeripheralDriver/src/stm32f10x_i2c.c ****     {
 253:../StdPeripheralDriver/src/stm32f10x_i2c.c ****       /* Fast mode speed calculate: Tlow/Thigh = 16/9 */
 254:../StdPeripheralDriver/src/stm32f10x_i2c.c ****       result = (uint16_t)(pclk1 / (I2C_InitStruct->I2C_ClockSpeed * 25));
 18146              		.loc 1 254 0
 18147 00d0 3B68     		ldr	r3, [r7, #0]
 18148 00d2 1A68     		ldr	r2, [r3, #0]
 18149 00d4 1346     		mov	r3, r2
 18150 00d6 4FEA8303 		lsl	r3, r3, #2
 18151 00da 9B18     		adds	r3, r3, r2
 18152 00dc 4FEA8302 		lsl	r2, r3, #2
 18153 00e0 9B18     		adds	r3, r3, r2
 18154 00e2 FA69     		ldr	r2, [r7, #28]
 18155 00e4 B2FBF3F3 		udiv	r3, r2, r3
 18156 00e8 BB84     		strh	r3, [r7, #36]	@ movhi
 255:../StdPeripheralDriver/src/stm32f10x_i2c.c ****       /* Set DUTY bit */
 256:../StdPeripheralDriver/src/stm32f10x_i2c.c ****       result |= I2C_DutyCycle_16_9;
 18157              		.loc 1 256 0
 18158 00ea BB8C     		ldrh	r3, [r7, #36]	@ movhi
 18159 00ec 43F48043 		orr	r3, r3, #16384
 18160 00f0 BB84     		strh	r3, [r7, #36]	@ movhi
 18161              	.L11:
 257:../StdPeripheralDriver/src/stm32f10x_i2c.c ****     }
 258:../StdPeripheralDriver/src/stm32f10x_i2c.c **** 
 259:../StdPeripheralDriver/src/stm32f10x_i2c.c ****     /* Test if CCR value is under 0x1*/
 260:../StdPeripheralDriver/src/stm32f10x_i2c.c ****     if ((result & CCR_CCR_Set) == 0)
 18162              		.loc 1 260 0
 18163 00f2 BB8C     		ldrh	r3, [r7, #36]
 18164 00f4 4FEA0353 		lsl	r3, r3, #20
 18165 00f8 4FEA1353 		lsr	r3, r3, #20
 18166 00fc 002B     		cmp	r3, #0
 18167 00fe 03D1     		bne	.L12
 261:../StdPeripheralDriver/src/stm32f10x_i2c.c ****     {
 262:../StdPeripheralDriver/src/stm32f10x_i2c.c ****       /* Set minimum allowed value */
 263:../StdPeripheralDriver/src/stm32f10x_i2c.c ****       result |= (uint16_t)0x0001;  
 18168              		.loc 1 263 0
 18169 0100 BB8C     		ldrh	r3, [r7, #36]	@ movhi
 18170 0102 43F00103 		orr	r3, r3, #1
 18171 0106 BB84     		strh	r3, [r7, #36]	@ movhi
 18172              	.L12:
 264:../StdPeripheralDriver/src/stm32f10x_i2c.c ****     }
 265:../StdPeripheralDriver/src/stm32f10x_i2c.c ****     /* Set speed value and set F/S bit for fast mode */
 266:../StdPeripheralDriver/src/stm32f10x_i2c.c ****     tmpreg |= (uint16_t)(result | CCR_FS_Set);
 18173              		.loc 1 266 0
 18174 0108 BA8C     		ldrh	r2, [r7, #36]	@ movhi
 18175 010a FB8C     		ldrh	r3, [r7, #38]	@ movhi
 18176 010c 42EA0303 		orr	r3, r2, r3
 18177 0110 9BB2     		uxth	r3, r3
 18178 0112 6FEA4343 		mvn	r3, r3, lsl #17
 18179 0116 6FEA5343 		mvn	r3, r3, lsr #17
 18180 011a FB84     		strh	r3, [r7, #38]	@ movhi
 267:../StdPeripheralDriver/src/stm32f10x_i2c.c ****     /* Set Maximum Rise Time for fast mode */
 268:../StdPeripheralDriver/src/stm32f10x_i2c.c ****     I2Cx->TRISE = (uint16_t)(((freqrange * (uint16_t)300) / (uint16_t)1000) + (uint16_t)1);  
 18181              		.loc 1 268 0
 18182 011c 7B8C     		ldrh	r3, [r7, #34]
 18183 011e 4FF49672 		mov	r2, #300
 18184 0122 02FB03F3 		mul	r3, r2, r3
 18185 0126 214A     		ldr	r2, .L13+12
 18186 0128 82FB0312 		smull	r1, r2, r2, r3
 18187 012c 4FEAA212 		asr	r2, r2, #6
 18188 0130 4FEAE373 		asr	r3, r3, #31
 18189 0134 D31A     		subs	r3, r2, r3
 18190 0136 9BB2     		uxth	r3, r3
 18191 0138 03F10103 		add	r3, r3, #1
 18192 013c 9AB2     		uxth	r2, r3
 18193 013e 7B68     		ldr	r3, [r7, #4]
 18194 0140 1A84     		strh	r2, [r3, #32]	@ movhi
 18195              	.L9:
 269:../StdPeripheralDriver/src/stm32f10x_i2c.c ****   }
 270:../StdPeripheralDriver/src/stm32f10x_i2c.c **** 
 271:../StdPeripheralDriver/src/stm32f10x_i2c.c ****   /* Write to I2Cx CCR */
 272:../StdPeripheralDriver/src/stm32f10x_i2c.c ****   I2Cx->CCR = tmpreg;
 18196              		.loc 1 272 0
 18197 0142 7B68     		ldr	r3, [r7, #4]
 18198 0144 FA8C     		ldrh	r2, [r7, #38]	@ movhi
 18199 0146 9A83     		strh	r2, [r3, #28]	@ movhi
 273:../StdPeripheralDriver/src/stm32f10x_i2c.c ****   /* Enable the selected I2C peripheral */
 274:../StdPeripheralDriver/src/stm32f10x_i2c.c ****   I2Cx->CR1 |= CR1_PE_Set;
 18200              		.loc 1 274 0
 18201 0148 7B68     		ldr	r3, [r7, #4]
 18202 014a 1B88     		ldrh	r3, [r3, #0]	@ movhi
 18203 014c 9BB2     		uxth	r3, r3
 18204 014e 43F00103 		orr	r3, r3, #1
 18205 0152 9AB2     		uxth	r2, r3
 18206 0154 7B68     		ldr	r3, [r7, #4]
 18207 0156 1A80     		strh	r2, [r3, #0]	@ movhi
 275:../StdPeripheralDriver/src/stm32f10x_i2c.c **** 
 276:../StdPeripheralDriver/src/stm32f10x_i2c.c **** /*---------------------------- I2Cx CR1 Configuration ------------------------*/
 277:../StdPeripheralDriver/src/stm32f10x_i2c.c ****   /* Get the I2Cx CR1 value */
 278:../StdPeripheralDriver/src/stm32f10x_i2c.c ****   tmpreg = I2Cx->CR1;
 18208              		.loc 1 278 0
 18209 0158 7B68     		ldr	r3, [r7, #4]
 18210 015a 1B88     		ldrh	r3, [r3, #0]	@ movhi
 18211 015c FB84     		strh	r3, [r7, #38]	@ movhi
 279:../StdPeripheralDriver/src/stm32f10x_i2c.c ****   /* Clear ACK, SMBTYPE and  SMBUS bits */
 280:../StdPeripheralDriver/src/stm32f10x_i2c.c ****   tmpreg &= CR1_CLEAR_Mask;
 18212              		.loc 1 280 0
 18213 015e FB8C     		ldrh	r3, [r7, #38]	@ movhi
 18214 0160 23F48063 		bic	r3, r3, #1024
 18215 0164 23F00A03 		bic	r3, r3, #10
 18216 0168 FB84     		strh	r3, [r7, #38]	@ movhi
 281:../StdPeripheralDriver/src/stm32f10x_i2c.c ****   /* Configure I2Cx: mode and acknowledgement */
 282:../StdPeripheralDriver/src/stm32f10x_i2c.c ****   /* Set SMBTYPE and SMBUS bits according to I2C_Mode value */
 283:../StdPeripheralDriver/src/stm32f10x_i2c.c ****   /* Set ACK bit according to I2C_Ack value */
 284:../StdPeripheralDriver/src/stm32f10x_i2c.c ****   tmpreg |= (uint16_t)((uint32_t)I2C_InitStruct->I2C_Mode | I2C_InitStruct->I2C_Ack);
 18217              		.loc 1 284 0
 18218 016a 3B68     		ldr	r3, [r7, #0]
 18219 016c 9A88     		ldrh	r2, [r3, #4]
 18220 016e 3B68     		ldr	r3, [r7, #0]
 18221 0170 5B89     		ldrh	r3, [r3, #10]
 18222 0172 42EA0303 		orr	r3, r2, r3
 18223 0176 9AB2     		uxth	r2, r3
 18224 0178 FB8C     		ldrh	r3, [r7, #38]	@ movhi
 18225 017a 42EA0303 		orr	r3, r2, r3
 18226 017e FB84     		strh	r3, [r7, #38]	@ movhi
 285:../StdPeripheralDriver/src/stm32f10x_i2c.c ****   /* Write to I2Cx CR1 */
 286:../StdPeripheralDriver/src/stm32f10x_i2c.c ****   I2Cx->CR1 = tmpreg;
 18227              		.loc 1 286 0
 18228 0180 7B68     		ldr	r3, [r7, #4]
 18229 0182 FA8C     		ldrh	r2, [r7, #38]	@ movhi
 18230 0184 1A80     		strh	r2, [r3, #0]	@ movhi
 287:../StdPeripheralDriver/src/stm32f10x_i2c.c **** 
 288:../StdPeripheralDriver/src/stm32f10x_i2c.c **** /*---------------------------- I2Cx OAR1 Configuration -----------------------*/
 289:../StdPeripheralDriver/src/stm32f10x_i2c.c ****   /* Set I2Cx Own Address1 and acknowledged address */
 290:../StdPeripheralDriver/src/stm32f10x_i2c.c ****   I2Cx->OAR1 = (I2C_InitStruct->I2C_AcknowledgedAddress | I2C_InitStruct->I2C_OwnAddress1);
 18231              		.loc 1 290 0
 18232 0186 3B68     		ldr	r3, [r7, #0]
 18233 0188 9A89     		ldrh	r2, [r3, #12]
 18234 018a 3B68     		ldr	r3, [r7, #0]
 18235 018c 1B89     		ldrh	r3, [r3, #8]
 18236 018e 42EA0303 		orr	r3, r2, r3
 18237 0192 9AB2     		uxth	r2, r3
 18238 0194 7B68     		ldr	r3, [r7, #4]
 18239 0196 1A81     		strh	r2, [r3, #8]	@ movhi
 291:../StdPeripheralDriver/src/stm32f10x_i2c.c **** }
 18240              		.loc 1 291 0
 18241 0198 07F12807 		add	r7, r7, #40
 18242 019c BD46     		mov	sp, r7
 18243 019e 80BD     		pop	{r7, pc}
 18244              	.L14:
 18245              		.align	2
 18246              	.L13:
 18247 01a0 00127A00 		.word	8000000
 18248 01a4 83DE1B43 		.word	1125899907
 18249 01a8 A0860100 		.word	100000
 18250 01ac D34D6210 		.word	274877907
 18251              		.cfi_endproc
 18252              	.LFE30:
 18254              		.section	.text.I2C_StructInit,"ax",%progbits
 18255              		.align	2
 18256              		.global	I2C_StructInit
 18257              		.thumb
 18258              		.thumb_func
 18260              	I2C_StructInit:
 18261              	.LFB31:
 292:../StdPeripheralDriver/src/stm32f10x_i2c.c **** 
 293:../StdPeripheralDriver/src/stm32f10x_i2c.c **** /**
 294:../StdPeripheralDriver/src/stm32f10x_i2c.c ****   * @brief  Fills each I2C_InitStruct member with its default value.
 295:../StdPeripheralDriver/src/stm32f10x_i2c.c ****   * @param  I2C_InitStruct: pointer to an I2C_InitTypeDef structure which will be initialized.
 296:../StdPeripheralDriver/src/stm32f10x_i2c.c ****   * @retval None
 297:../StdPeripheralDriver/src/stm32f10x_i2c.c ****   */
 298:../StdPeripheralDriver/src/stm32f10x_i2c.c **** void I2C_StructInit(I2C_InitTypeDef* I2C_InitStruct)
 299:../StdPeripheralDriver/src/stm32f10x_i2c.c **** {
 18262              		.loc 1 299 0
 18263              		.cfi_startproc
 18264              		@ args = 0, pretend = 0, frame = 8
 18265              		@ frame_needed = 1, uses_anonymous_args = 0
 18266              		@ link register save eliminated.
 18267 0000 80B4     		push	{r7}
 18268              	.LCFI6:
 18269              		.cfi_def_cfa_offset 4
 18270 0002 83B0     		sub	sp, sp, #12
 18271              	.LCFI7:
 18272              		.cfi_def_cfa_offset 16
 18273 0004 00AF     		add	r7, sp, #0
 18274              		.cfi_offset 7, -4
 18275              	.LCFI8:
 18276              		.cfi_def_cfa_register 7
 18277 0006 7860     		str	r0, [r7, #4]
 300:../StdPeripheralDriver/src/stm32f10x_i2c.c **** /*---------------- Reset I2C init structure parameters values ----------------*/
 301:../StdPeripheralDriver/src/stm32f10x_i2c.c ****   /* initialize the I2C_ClockSpeed member */
 302:../StdPeripheralDriver/src/stm32f10x_i2c.c ****   I2C_InitStruct->I2C_ClockSpeed = 5000;
 18278              		.loc 1 302 0
 18279 0008 7B68     		ldr	r3, [r7, #4]
 18280 000a 41F28832 		movw	r2, #5000
 18281 000e 1A60     		str	r2, [r3, #0]
 303:../StdPeripheralDriver/src/stm32f10x_i2c.c ****   /* Initialize the I2C_Mode member */
 304:../StdPeripheralDriver/src/stm32f10x_i2c.c ****   I2C_InitStruct->I2C_Mode = I2C_Mode_I2C;
 18282              		.loc 1 304 0
 18283 0010 7B68     		ldr	r3, [r7, #4]
 18284 0012 4FF00002 		mov	r2, #0
 18285 0016 9A80     		strh	r2, [r3, #4]	@ movhi
 305:../StdPeripheralDriver/src/stm32f10x_i2c.c ****   /* Initialize the I2C_DutyCycle member */
 306:../StdPeripheralDriver/src/stm32f10x_i2c.c ****   I2C_InitStruct->I2C_DutyCycle = I2C_DutyCycle_2;
 18286              		.loc 1 306 0
 18287 0018 7B68     		ldr	r3, [r7, #4]
 18288 001a 4BF6FF72 		movw	r2, #49151
 18289 001e DA80     		strh	r2, [r3, #6]	@ movhi
 307:../StdPeripheralDriver/src/stm32f10x_i2c.c ****   /* Initialize the I2C_OwnAddress1 member */
 308:../StdPeripheralDriver/src/stm32f10x_i2c.c ****   I2C_InitStruct->I2C_OwnAddress1 = 0;
 18290              		.loc 1 308 0
 18291 0020 7B68     		ldr	r3, [r7, #4]
 18292 0022 4FF00002 		mov	r2, #0
 18293 0026 1A81     		strh	r2, [r3, #8]	@ movhi
 309:../StdPeripheralDriver/src/stm32f10x_i2c.c ****   /* Initialize the I2C_Ack member */
 310:../StdPeripheralDriver/src/stm32f10x_i2c.c ****   I2C_InitStruct->I2C_Ack = I2C_Ack_Disable;
 18294              		.loc 1 310 0
 18295 0028 7B68     		ldr	r3, [r7, #4]
 18296 002a 4FF00002 		mov	r2, #0
 18297 002e 5A81     		strh	r2, [r3, #10]	@ movhi
 311:../StdPeripheralDriver/src/stm32f10x_i2c.c ****   /* Initialize the I2C_AcknowledgedAddress member */
 312:../StdPeripheralDriver/src/stm32f10x_i2c.c ****   I2C_InitStruct->I2C_AcknowledgedAddress = I2C_AcknowledgedAddress_7bit;
 18298              		.loc 1 312 0
 18299 0030 7B68     		ldr	r3, [r7, #4]
 18300 0032 4FF48042 		mov	r2, #16384
 18301 0036 9A81     		strh	r2, [r3, #12]	@ movhi
 313:../StdPeripheralDriver/src/stm32f10x_i2c.c **** }
 18302              		.loc 1 313 0
 18303 0038 07F10C07 		add	r7, r7, #12
 18304 003c BD46     		mov	sp, r7
 18305 003e 80BC     		pop	{r7}
 18306 0040 7047     		bx	lr
 18307              		.cfi_endproc
 18308              	.LFE31:
 18310 0042 00BF     		.section	.text.I2C_Cmd,"ax",%progbits
 18311              		.align	2
 18312              		.global	I2C_Cmd
 18313              		.thumb
 18314              		.thumb_func
 18316              	I2C_Cmd:
 18317              	.LFB32:
 314:../StdPeripheralDriver/src/stm32f10x_i2c.c **** 
 315:../StdPeripheralDriver/src/stm32f10x_i2c.c **** /**
 316:../StdPeripheralDriver/src/stm32f10x_i2c.c ****   * @brief  Enables or disables the specified I2C peripheral.
 317:../StdPeripheralDriver/src/stm32f10x_i2c.c ****   * @param  I2Cx: where x can be 1 or 2 to select the I2C peripheral.
 318:../StdPeripheralDriver/src/stm32f10x_i2c.c ****   * @param  NewState: new state of the I2Cx peripheral. 
 319:../StdPeripheralDriver/src/stm32f10x_i2c.c ****   *   This parameter can be: ENABLE or DISABLE.
 320:../StdPeripheralDriver/src/stm32f10x_i2c.c ****   * @retval None
 321:../StdPeripheralDriver/src/stm32f10x_i2c.c ****   */
 322:../StdPeripheralDriver/src/stm32f10x_i2c.c **** void I2C_Cmd(I2C_TypeDef* I2Cx, FunctionalState NewState)
 323:../StdPeripheralDriver/src/stm32f10x_i2c.c **** {
 18318              		.loc 1 323 0
 18319              		.cfi_startproc
 18320              		@ args = 0, pretend = 0, frame = 8
 18321              		@ frame_needed = 1, uses_anonymous_args = 0
 18322              		@ link register save eliminated.
 18323 0000 80B4     		push	{r7}
 18324              	.LCFI9:
 18325              		.cfi_def_cfa_offset 4
 18326 0002 83B0     		sub	sp, sp, #12
 18327              	.LCFI10:
 18328              		.cfi_def_cfa_offset 16
 18329 0004 00AF     		add	r7, sp, #0
 18330              		.cfi_offset 7, -4
 18331              	.LCFI11:
 18332              		.cfi_def_cfa_register 7
 18333 0006 7860     		str	r0, [r7, #4]
 18334 0008 0B46     		mov	r3, r1
 18335 000a FB70     		strb	r3, [r7, #3]
 324:../StdPeripheralDriver/src/stm32f10x_i2c.c ****   /* Check the parameters */
 325:../StdPeripheralDriver/src/stm32f10x_i2c.c ****   assert_param(IS_I2C_ALL_PERIPH(I2Cx));
 326:../StdPeripheralDriver/src/stm32f10x_i2c.c ****   assert_param(IS_FUNCTIONAL_STATE(NewState));
 327:../StdPeripheralDriver/src/stm32f10x_i2c.c ****   if (NewState != DISABLE)
 18336              		.loc 1 327 0
 18337 000c FB78     		ldrb	r3, [r7, #3]	@ zero_extendqisi2
 18338 000e 002B     		cmp	r3, #0
 18339 0010 08D0     		beq	.L17
 328:../StdPeripheralDriver/src/stm32f10x_i2c.c ****   {
 329:../StdPeripheralDriver/src/stm32f10x_i2c.c ****     /* Enable the selected I2C peripheral */
 330:../StdPeripheralDriver/src/stm32f10x_i2c.c ****     I2Cx->CR1 |= CR1_PE_Set;
 18340              		.loc 1 330 0
 18341 0012 7B68     		ldr	r3, [r7, #4]
 18342 0014 1B88     		ldrh	r3, [r3, #0]	@ movhi
 18343 0016 9BB2     		uxth	r3, r3
 18344 0018 43F00103 		orr	r3, r3, #1
 18345 001c 9AB2     		uxth	r2, r3
 18346 001e 7B68     		ldr	r3, [r7, #4]
 18347 0020 1A80     		strh	r2, [r3, #0]	@ movhi
 18348 0022 07E0     		b	.L16
 18349              	.L17:
 331:../StdPeripheralDriver/src/stm32f10x_i2c.c ****   }
 332:../StdPeripheralDriver/src/stm32f10x_i2c.c ****   else
 333:../StdPeripheralDriver/src/stm32f10x_i2c.c ****   {
 334:../StdPeripheralDriver/src/stm32f10x_i2c.c ****     /* Disable the selected I2C peripheral */
 335:../StdPeripheralDriver/src/stm32f10x_i2c.c ****     I2Cx->CR1 &= CR1_PE_Reset;
 18350              		.loc 1 335 0
 18351 0024 7B68     		ldr	r3, [r7, #4]
 18352 0026 1B88     		ldrh	r3, [r3, #0]	@ movhi
 18353 0028 9BB2     		uxth	r3, r3
 18354 002a 23F00103 		bic	r3, r3, #1
 18355 002e 9AB2     		uxth	r2, r3
 18356 0030 7B68     		ldr	r3, [r7, #4]
 18357 0032 1A80     		strh	r2, [r3, #0]	@ movhi
 18358              	.L16:
 336:../StdPeripheralDriver/src/stm32f10x_i2c.c ****   }
 337:../StdPeripheralDriver/src/stm32f10x_i2c.c **** }
 18359              		.loc 1 337 0
 18360 0034 07F10C07 		add	r7, r7, #12
 18361 0038 BD46     		mov	sp, r7
 18362 003a 80BC     		pop	{r7}
 18363 003c 7047     		bx	lr
 18364              		.cfi_endproc
 18365              	.LFE32:
 18367 003e 00BF     		.section	.text.I2C_DMACmd,"ax",%progbits
 18368              		.align	2
 18369              		.global	I2C_DMACmd
 18370              		.thumb
 18371              		.thumb_func
 18373              	I2C_DMACmd:
 18374              	.LFB33:
 338:../StdPeripheralDriver/src/stm32f10x_i2c.c **** 
 339:../StdPeripheralDriver/src/stm32f10x_i2c.c **** /**
 340:../StdPeripheralDriver/src/stm32f10x_i2c.c ****   * @brief  Enables or disables the specified I2C DMA requests.
 341:../StdPeripheralDriver/src/stm32f10x_i2c.c ****   * @param  I2Cx: where x can be 1 or 2 to select the I2C peripheral.
 342:../StdPeripheralDriver/src/stm32f10x_i2c.c ****   * @param  NewState: new state of the I2C DMA transfer.
 343:../StdPeripheralDriver/src/stm32f10x_i2c.c ****   *   This parameter can be: ENABLE or DISABLE.
 344:../StdPeripheralDriver/src/stm32f10x_i2c.c ****   * @retval None
 345:../StdPeripheralDriver/src/stm32f10x_i2c.c ****   */
 346:../StdPeripheralDriver/src/stm32f10x_i2c.c **** void I2C_DMACmd(I2C_TypeDef* I2Cx, FunctionalState NewState)
 347:../StdPeripheralDriver/src/stm32f10x_i2c.c **** {
 18375              		.loc 1 347 0
 18376              		.cfi_startproc
 18377              		@ args = 0, pretend = 0, frame = 8
 18378              		@ frame_needed = 1, uses_anonymous_args = 0
 18379              		@ link register save eliminated.
 18380 0000 80B4     		push	{r7}
 18381              	.LCFI12:
 18382              		.cfi_def_cfa_offset 4
 18383 0002 83B0     		sub	sp, sp, #12
 18384              	.LCFI13:
 18385              		.cfi_def_cfa_offset 16
 18386 0004 00AF     		add	r7, sp, #0
 18387              		.cfi_offset 7, -4
 18388              	.LCFI14:
 18389              		.cfi_def_cfa_register 7
 18390 0006 7860     		str	r0, [r7, #4]
 18391 0008 0B46     		mov	r3, r1
 18392 000a FB70     		strb	r3, [r7, #3]
 348:../StdPeripheralDriver/src/stm32f10x_i2c.c ****   /* Check the parameters */
 349:../StdPeripheralDriver/src/stm32f10x_i2c.c ****   assert_param(IS_I2C_ALL_PERIPH(I2Cx));
 350:../StdPeripheralDriver/src/stm32f10x_i2c.c ****   assert_param(IS_FUNCTIONAL_STATE(NewState));
 351:../StdPeripheralDriver/src/stm32f10x_i2c.c ****   if (NewState != DISABLE)
 18393              		.loc 1 351 0
 18394 000c FB78     		ldrb	r3, [r7, #3]	@ zero_extendqisi2
 18395 000e 002B     		cmp	r3, #0
 18396 0010 08D0     		beq	.L20
 352:../StdPeripheralDriver/src/stm32f10x_i2c.c ****   {
 353:../StdPeripheralDriver/src/stm32f10x_i2c.c ****     /* Enable the selected I2C DMA requests */
 354:../StdPeripheralDriver/src/stm32f10x_i2c.c ****     I2Cx->CR2 |= CR2_DMAEN_Set;
 18397              		.loc 1 354 0
 18398 0012 7B68     		ldr	r3, [r7, #4]
 18399 0014 9B88     		ldrh	r3, [r3, #4]	@ movhi
 18400 0016 9BB2     		uxth	r3, r3
 18401 0018 43F40063 		orr	r3, r3, #2048
 18402 001c 9AB2     		uxth	r2, r3
 18403 001e 7B68     		ldr	r3, [r7, #4]
 18404 0020 9A80     		strh	r2, [r3, #4]	@ movhi
 18405 0022 07E0     		b	.L19
 18406              	.L20:
 355:../StdPeripheralDriver/src/stm32f10x_i2c.c ****   }
 356:../StdPeripheralDriver/src/stm32f10x_i2c.c ****   else
 357:../StdPeripheralDriver/src/stm32f10x_i2c.c ****   {
 358:../StdPeripheralDriver/src/stm32f10x_i2c.c ****     /* Disable the selected I2C DMA requests */
 359:../StdPeripheralDriver/src/stm32f10x_i2c.c ****     I2Cx->CR2 &= CR2_DMAEN_Reset;
 18407              		.loc 1 359 0
 18408 0024 7B68     		ldr	r3, [r7, #4]
 18409 0026 9B88     		ldrh	r3, [r3, #4]	@ movhi
 18410 0028 9BB2     		uxth	r3, r3
 18411 002a 23F40063 		bic	r3, r3, #2048
 18412 002e 9AB2     		uxth	r2, r3
 18413 0030 7B68     		ldr	r3, [r7, #4]
 18414 0032 9A80     		strh	r2, [r3, #4]	@ movhi
 18415              	.L19:
 360:../StdPeripheralDriver/src/stm32f10x_i2c.c ****   }
 361:../StdPeripheralDriver/src/stm32f10x_i2c.c **** }
 18416              		.loc 1 361 0
 18417 0034 07F10C07 		add	r7, r7, #12
 18418 0038 BD46     		mov	sp, r7
 18419 003a 80BC     		pop	{r7}
 18420 003c 7047     		bx	lr
 18421              		.cfi_endproc
 18422              	.LFE33:
 18424 003e 00BF     		.section	.text.I2C_DMALastTransferCmd,"ax",%progbits
 18425              		.align	2
 18426              		.global	I2C_DMALastTransferCmd
 18427              		.thumb
 18428              		.thumb_func
 18430              	I2C_DMALastTransferCmd:
 18431              	.LFB34:
 362:../StdPeripheralDriver/src/stm32f10x_i2c.c **** 
 363:../StdPeripheralDriver/src/stm32f10x_i2c.c **** /**
 364:../StdPeripheralDriver/src/stm32f10x_i2c.c ****   * @brief  Specifies if the next DMA transfer will be the last one.
 365:../StdPeripheralDriver/src/stm32f10x_i2c.c ****   * @param  I2Cx: where x can be 1 or 2 to select the I2C peripheral.
 366:../StdPeripheralDriver/src/stm32f10x_i2c.c ****   * @param  NewState: new state of the I2C DMA last transfer.
 367:../StdPeripheralDriver/src/stm32f10x_i2c.c ****   *   This parameter can be: ENABLE or DISABLE.
 368:../StdPeripheralDriver/src/stm32f10x_i2c.c ****   * @retval None
 369:../StdPeripheralDriver/src/stm32f10x_i2c.c ****   */
 370:../StdPeripheralDriver/src/stm32f10x_i2c.c **** void I2C_DMALastTransferCmd(I2C_TypeDef* I2Cx, FunctionalState NewState)
 371:../StdPeripheralDriver/src/stm32f10x_i2c.c **** {
 18432              		.loc 1 371 0
 18433              		.cfi_startproc
 18434              		@ args = 0, pretend = 0, frame = 8
 18435              		@ frame_needed = 1, uses_anonymous_args = 0
 18436              		@ link register save eliminated.
 18437 0000 80B4     		push	{r7}
 18438              	.LCFI15:
 18439              		.cfi_def_cfa_offset 4
 18440 0002 83B0     		sub	sp, sp, #12
 18441              	.LCFI16:
 18442              		.cfi_def_cfa_offset 16
 18443 0004 00AF     		add	r7, sp, #0
 18444              		.cfi_offset 7, -4
 18445              	.LCFI17:
 18446              		.cfi_def_cfa_register 7
 18447 0006 7860     		str	r0, [r7, #4]
 18448 0008 0B46     		mov	r3, r1
 18449 000a FB70     		strb	r3, [r7, #3]
 372:../StdPeripheralDriver/src/stm32f10x_i2c.c ****   /* Check the parameters */
 373:../StdPeripheralDriver/src/stm32f10x_i2c.c ****   assert_param(IS_I2C_ALL_PERIPH(I2Cx));
 374:../StdPeripheralDriver/src/stm32f10x_i2c.c ****   assert_param(IS_FUNCTIONAL_STATE(NewState));
 375:../StdPeripheralDriver/src/stm32f10x_i2c.c ****   if (NewState != DISABLE)
 18450              		.loc 1 375 0
 18451 000c FB78     		ldrb	r3, [r7, #3]	@ zero_extendqisi2
 18452 000e 002B     		cmp	r3, #0
 18453 0010 08D0     		beq	.L23
 376:../StdPeripheralDriver/src/stm32f10x_i2c.c ****   {
 377:../StdPeripheralDriver/src/stm32f10x_i2c.c ****     /* Next DMA transfer is the last transfer */
 378:../StdPeripheralDriver/src/stm32f10x_i2c.c ****     I2Cx->CR2 |= CR2_LAST_Set;
 18454              		.loc 1 378 0
 18455 0012 7B68     		ldr	r3, [r7, #4]
 18456 0014 9B88     		ldrh	r3, [r3, #4]	@ movhi
 18457 0016 9BB2     		uxth	r3, r3
 18458 0018 43F48053 		orr	r3, r3, #4096
 18459 001c 9AB2     		uxth	r2, r3
 18460 001e 7B68     		ldr	r3, [r7, #4]
 18461 0020 9A80     		strh	r2, [r3, #4]	@ movhi
 18462 0022 07E0     		b	.L22
 18463              	.L23:
 379:../StdPeripheralDriver/src/stm32f10x_i2c.c ****   }
 380:../StdPeripheralDriver/src/stm32f10x_i2c.c ****   else
 381:../StdPeripheralDriver/src/stm32f10x_i2c.c ****   {
 382:../StdPeripheralDriver/src/stm32f10x_i2c.c ****     /* Next DMA transfer is not the last transfer */
 383:../StdPeripheralDriver/src/stm32f10x_i2c.c ****     I2Cx->CR2 &= CR2_LAST_Reset;
 18464              		.loc 1 383 0
 18465 0024 7B68     		ldr	r3, [r7, #4]
 18466 0026 9B88     		ldrh	r3, [r3, #4]	@ movhi
 18467 0028 9BB2     		uxth	r3, r3
 18468 002a 23F48053 		bic	r3, r3, #4096
 18469 002e 9AB2     		uxth	r2, r3
 18470 0030 7B68     		ldr	r3, [r7, #4]
 18471 0032 9A80     		strh	r2, [r3, #4]	@ movhi
 18472              	.L22:
 384:../StdPeripheralDriver/src/stm32f10x_i2c.c ****   }
 385:../StdPeripheralDriver/src/stm32f10x_i2c.c **** }
 18473              		.loc 1 385 0
 18474 0034 07F10C07 		add	r7, r7, #12
 18475 0038 BD46     		mov	sp, r7
 18476 003a 80BC     		pop	{r7}
 18477 003c 7047     		bx	lr
 18478              		.cfi_endproc
 18479              	.LFE34:
 18481 003e 00BF     		.section	.text.I2C_GenerateSTART,"ax",%progbits
 18482              		.align	2
 18483              		.global	I2C_GenerateSTART
 18484              		.thumb
 18485              		.thumb_func
 18487              	I2C_GenerateSTART:
 18488              	.LFB35:
 386:../StdPeripheralDriver/src/stm32f10x_i2c.c **** 
 387:../StdPeripheralDriver/src/stm32f10x_i2c.c **** /**
 388:../StdPeripheralDriver/src/stm32f10x_i2c.c ****   * @brief  Generates I2Cx communication START condition.
 389:../StdPeripheralDriver/src/stm32f10x_i2c.c ****   * @param  I2Cx: where x can be 1 or 2 to select the I2C peripheral.
 390:../StdPeripheralDriver/src/stm32f10x_i2c.c ****   * @param  NewState: new state of the I2C START condition generation.
 391:../StdPeripheralDriver/src/stm32f10x_i2c.c ****   *   This parameter can be: ENABLE or DISABLE.
 392:../StdPeripheralDriver/src/stm32f10x_i2c.c ****   * @retval None.
 393:../StdPeripheralDriver/src/stm32f10x_i2c.c ****   */
 394:../StdPeripheralDriver/src/stm32f10x_i2c.c **** void I2C_GenerateSTART(I2C_TypeDef* I2Cx, FunctionalState NewState)
 395:../StdPeripheralDriver/src/stm32f10x_i2c.c **** {
 18489              		.loc 1 395 0
 18490              		.cfi_startproc
 18491              		@ args = 0, pretend = 0, frame = 8
 18492              		@ frame_needed = 1, uses_anonymous_args = 0
 18493              		@ link register save eliminated.
 18494 0000 80B4     		push	{r7}
 18495              	.LCFI18:
 18496              		.cfi_def_cfa_offset 4
 18497 0002 83B0     		sub	sp, sp, #12
 18498              	.LCFI19:
 18499              		.cfi_def_cfa_offset 16
 18500 0004 00AF     		add	r7, sp, #0
 18501              		.cfi_offset 7, -4
 18502              	.LCFI20:
 18503              		.cfi_def_cfa_register 7
 18504 0006 7860     		str	r0, [r7, #4]
 18505 0008 0B46     		mov	r3, r1
 18506 000a FB70     		strb	r3, [r7, #3]
 396:../StdPeripheralDriver/src/stm32f10x_i2c.c ****   /* Check the parameters */
 397:../StdPeripheralDriver/src/stm32f10x_i2c.c ****   assert_param(IS_I2C_ALL_PERIPH(I2Cx));
 398:../StdPeripheralDriver/src/stm32f10x_i2c.c ****   assert_param(IS_FUNCTIONAL_STATE(NewState));
 399:../StdPeripheralDriver/src/stm32f10x_i2c.c ****   if (NewState != DISABLE)
 18507              		.loc 1 399 0
 18508 000c FB78     		ldrb	r3, [r7, #3]	@ zero_extendqisi2
 18509 000e 002B     		cmp	r3, #0
 18510 0010 08D0     		beq	.L26
 400:../StdPeripheralDriver/src/stm32f10x_i2c.c ****   {
 401:../StdPeripheralDriver/src/stm32f10x_i2c.c ****     /* Generate a START condition */
 402:../StdPeripheralDriver/src/stm32f10x_i2c.c ****     I2Cx->CR1 |= CR1_START_Set;
 18511              		.loc 1 402 0
 18512 0012 7B68     		ldr	r3, [r7, #4]
 18513 0014 1B88     		ldrh	r3, [r3, #0]	@ movhi
 18514 0016 9BB2     		uxth	r3, r3
 18515 0018 43F48073 		orr	r3, r3, #256
 18516 001c 9AB2     		uxth	r2, r3
 18517 001e 7B68     		ldr	r3, [r7, #4]
 18518 0020 1A80     		strh	r2, [r3, #0]	@ movhi
 18519 0022 07E0     		b	.L25
 18520              	.L26:
 403:../StdPeripheralDriver/src/stm32f10x_i2c.c ****   }
 404:../StdPeripheralDriver/src/stm32f10x_i2c.c ****   else
 405:../StdPeripheralDriver/src/stm32f10x_i2c.c ****   {
 406:../StdPeripheralDriver/src/stm32f10x_i2c.c ****     /* Disable the START condition generation */
 407:../StdPeripheralDriver/src/stm32f10x_i2c.c ****     I2Cx->CR1 &= CR1_START_Reset;
 18521              		.loc 1 407 0
 18522 0024 7B68     		ldr	r3, [r7, #4]
 18523 0026 1B88     		ldrh	r3, [r3, #0]	@ movhi
 18524 0028 9BB2     		uxth	r3, r3
 18525 002a 23F48073 		bic	r3, r3, #256
 18526 002e 9AB2     		uxth	r2, r3
 18527 0030 7B68     		ldr	r3, [r7, #4]
 18528 0032 1A80     		strh	r2, [r3, #0]	@ movhi
 18529              	.L25:
 408:../StdPeripheralDriver/src/stm32f10x_i2c.c ****   }
 409:../StdPeripheralDriver/src/stm32f10x_i2c.c **** }
 18530              		.loc 1 409 0
 18531 0034 07F10C07 		add	r7, r7, #12
 18532 0038 BD46     		mov	sp, r7
 18533 003a 80BC     		pop	{r7}
 18534 003c 7047     		bx	lr
 18535              		.cfi_endproc
 18536              	.LFE35:
 18538 003e 00BF     		.section	.text.I2C_GenerateSTOP,"ax",%progbits
 18539              		.align	2
 18540              		.global	I2C_GenerateSTOP
 18541              		.thumb
 18542              		.thumb_func
 18544              	I2C_GenerateSTOP:
 18545              	.LFB36:
 410:../StdPeripheralDriver/src/stm32f10x_i2c.c **** 
 411:../StdPeripheralDriver/src/stm32f10x_i2c.c **** /**
 412:../StdPeripheralDriver/src/stm32f10x_i2c.c ****   * @brief  Generates I2Cx communication STOP condition.
 413:../StdPeripheralDriver/src/stm32f10x_i2c.c ****   * @param  I2Cx: where x can be 1 or 2 to select the I2C peripheral.
 414:../StdPeripheralDriver/src/stm32f10x_i2c.c ****   * @param  NewState: new state of the I2C STOP condition generation.
 415:../StdPeripheralDriver/src/stm32f10x_i2c.c ****   *   This parameter can be: ENABLE or DISABLE.
 416:../StdPeripheralDriver/src/stm32f10x_i2c.c ****   * @retval None.
 417:../StdPeripheralDriver/src/stm32f10x_i2c.c ****   */
 418:../StdPeripheralDriver/src/stm32f10x_i2c.c **** void I2C_GenerateSTOP(I2C_TypeDef* I2Cx, FunctionalState NewState)
 419:../StdPeripheralDriver/src/stm32f10x_i2c.c **** {
 18546              		.loc 1 419 0
 18547              		.cfi_startproc
 18548              		@ args = 0, pretend = 0, frame = 8
 18549              		@ frame_needed = 1, uses_anonymous_args = 0
 18550              		@ link register save eliminated.
 18551 0000 80B4     		push	{r7}
 18552              	.LCFI21:
 18553              		.cfi_def_cfa_offset 4
 18554 0002 83B0     		sub	sp, sp, #12
 18555              	.LCFI22:
 18556              		.cfi_def_cfa_offset 16
 18557 0004 00AF     		add	r7, sp, #0
 18558              		.cfi_offset 7, -4
 18559              	.LCFI23:
 18560              		.cfi_def_cfa_register 7
 18561 0006 7860     		str	r0, [r7, #4]
 18562 0008 0B46     		mov	r3, r1
 18563 000a FB70     		strb	r3, [r7, #3]
 420:../StdPeripheralDriver/src/stm32f10x_i2c.c ****   /* Check the parameters */
 421:../StdPeripheralDriver/src/stm32f10x_i2c.c ****   assert_param(IS_I2C_ALL_PERIPH(I2Cx));
 422:../StdPeripheralDriver/src/stm32f10x_i2c.c ****   assert_param(IS_FUNCTIONAL_STATE(NewState));
 423:../StdPeripheralDriver/src/stm32f10x_i2c.c ****   if (NewState != DISABLE)
 18564              		.loc 1 423 0
 18565 000c FB78     		ldrb	r3, [r7, #3]	@ zero_extendqisi2
 18566 000e 002B     		cmp	r3, #0
 18567 0010 08D0     		beq	.L29
 424:../StdPeripheralDriver/src/stm32f10x_i2c.c ****   {
 425:../StdPeripheralDriver/src/stm32f10x_i2c.c ****     /* Generate a STOP condition */
 426:../StdPeripheralDriver/src/stm32f10x_i2c.c ****     I2Cx->CR1 |= CR1_STOP_Set;
 18568              		.loc 1 426 0
 18569 0012 7B68     		ldr	r3, [r7, #4]
 18570 0014 1B88     		ldrh	r3, [r3, #0]	@ movhi
 18571 0016 9BB2     		uxth	r3, r3
 18572 0018 43F40073 		orr	r3, r3, #512
 18573 001c 9AB2     		uxth	r2, r3
 18574 001e 7B68     		ldr	r3, [r7, #4]
 18575 0020 1A80     		strh	r2, [r3, #0]	@ movhi
 18576 0022 07E0     		b	.L28
 18577              	.L29:
 427:../StdPeripheralDriver/src/stm32f10x_i2c.c ****   }
 428:../StdPeripheralDriver/src/stm32f10x_i2c.c ****   else
 429:../StdPeripheralDriver/src/stm32f10x_i2c.c ****   {
 430:../StdPeripheralDriver/src/stm32f10x_i2c.c ****     /* Disable the STOP condition generation */
 431:../StdPeripheralDriver/src/stm32f10x_i2c.c ****     I2Cx->CR1 &= CR1_STOP_Reset;
 18578              		.loc 1 431 0
 18579 0024 7B68     		ldr	r3, [r7, #4]
 18580 0026 1B88     		ldrh	r3, [r3, #0]	@ movhi
 18581 0028 9BB2     		uxth	r3, r3
 18582 002a 23F40073 		bic	r3, r3, #512
 18583 002e 9AB2     		uxth	r2, r3
 18584 0030 7B68     		ldr	r3, [r7, #4]
 18585 0032 1A80     		strh	r2, [r3, #0]	@ movhi
 18586              	.L28:
 432:../StdPeripheralDriver/src/stm32f10x_i2c.c ****   }
 433:../StdPeripheralDriver/src/stm32f10x_i2c.c **** }
 18587              		.loc 1 433 0
 18588 0034 07F10C07 		add	r7, r7, #12
 18589 0038 BD46     		mov	sp, r7
 18590 003a 80BC     		pop	{r7}
 18591 003c 7047     		bx	lr
 18592              		.cfi_endproc
 18593              	.LFE36:
 18595 003e 00BF     		.section	.text.I2C_AcknowledgeConfig,"ax",%progbits
 18596              		.align	2
 18597              		.global	I2C_AcknowledgeConfig
 18598              		.thumb
 18599              		.thumb_func
 18601              	I2C_AcknowledgeConfig:
 18602              	.LFB37:
 434:../StdPeripheralDriver/src/stm32f10x_i2c.c **** 
 435:../StdPeripheralDriver/src/stm32f10x_i2c.c **** /**
 436:../StdPeripheralDriver/src/stm32f10x_i2c.c ****   * @brief  Enables or disables the specified I2C acknowledge feature.
 437:../StdPeripheralDriver/src/stm32f10x_i2c.c ****   * @param  I2Cx: where x can be 1 or 2 to select the I2C peripheral.
 438:../StdPeripheralDriver/src/stm32f10x_i2c.c ****   * @param  NewState: new state of the I2C Acknowledgement.
 439:../StdPeripheralDriver/src/stm32f10x_i2c.c ****   *   This parameter can be: ENABLE or DISABLE.
 440:../StdPeripheralDriver/src/stm32f10x_i2c.c ****   * @retval None.
 441:../StdPeripheralDriver/src/stm32f10x_i2c.c ****   */
 442:../StdPeripheralDriver/src/stm32f10x_i2c.c **** void I2C_AcknowledgeConfig(I2C_TypeDef* I2Cx, FunctionalState NewState)
 443:../StdPeripheralDriver/src/stm32f10x_i2c.c **** {
 18603              		.loc 1 443 0
 18604              		.cfi_startproc
 18605              		@ args = 0, pretend = 0, frame = 8
 18606              		@ frame_needed = 1, uses_anonymous_args = 0
 18607              		@ link register save eliminated.
 18608 0000 80B4     		push	{r7}
 18609              	.LCFI24:
 18610              		.cfi_def_cfa_offset 4
 18611 0002 83B0     		sub	sp, sp, #12
 18612              	.LCFI25:
 18613              		.cfi_def_cfa_offset 16
 18614 0004 00AF     		add	r7, sp, #0
 18615              		.cfi_offset 7, -4
 18616              	.LCFI26:
 18617              		.cfi_def_cfa_register 7
 18618 0006 7860     		str	r0, [r7, #4]
 18619 0008 0B46     		mov	r3, r1
 18620 000a FB70     		strb	r3, [r7, #3]
 444:../StdPeripheralDriver/src/stm32f10x_i2c.c ****   /* Check the parameters */
 445:../StdPeripheralDriver/src/stm32f10x_i2c.c ****   assert_param(IS_I2C_ALL_PERIPH(I2Cx));
 446:../StdPeripheralDriver/src/stm32f10x_i2c.c ****   assert_param(IS_FUNCTIONAL_STATE(NewState));
 447:../StdPeripheralDriver/src/stm32f10x_i2c.c ****   if (NewState != DISABLE)
 18621              		.loc 1 447 0
 18622 000c FB78     		ldrb	r3, [r7, #3]	@ zero_extendqisi2
 18623 000e 002B     		cmp	r3, #0
 18624 0010 08D0     		beq	.L32
 448:../StdPeripheralDriver/src/stm32f10x_i2c.c ****   {
 449:../StdPeripheralDriver/src/stm32f10x_i2c.c ****     /* Enable the acknowledgement */
 450:../StdPeripheralDriver/src/stm32f10x_i2c.c ****     I2Cx->CR1 |= CR1_ACK_Set;
 18625              		.loc 1 450 0
 18626 0012 7B68     		ldr	r3, [r7, #4]
 18627 0014 1B88     		ldrh	r3, [r3, #0]	@ movhi
 18628 0016 9BB2     		uxth	r3, r3
 18629 0018 43F48063 		orr	r3, r3, #1024
 18630 001c 9AB2     		uxth	r2, r3
 18631 001e 7B68     		ldr	r3, [r7, #4]
 18632 0020 1A80     		strh	r2, [r3, #0]	@ movhi
 18633 0022 07E0     		b	.L31
 18634              	.L32:
 451:../StdPeripheralDriver/src/stm32f10x_i2c.c ****   }
 452:../StdPeripheralDriver/src/stm32f10x_i2c.c ****   else
 453:../StdPeripheralDriver/src/stm32f10x_i2c.c ****   {
 454:../StdPeripheralDriver/src/stm32f10x_i2c.c ****     /* Disable the acknowledgement */
 455:../StdPeripheralDriver/src/stm32f10x_i2c.c ****     I2Cx->CR1 &= CR1_ACK_Reset;
 18635              		.loc 1 455 0
 18636 0024 7B68     		ldr	r3, [r7, #4]
 18637 0026 1B88     		ldrh	r3, [r3, #0]	@ movhi
 18638 0028 9BB2     		uxth	r3, r3
 18639 002a 23F48063 		bic	r3, r3, #1024
 18640 002e 9AB2     		uxth	r2, r3
 18641 0030 7B68     		ldr	r3, [r7, #4]
 18642 0032 1A80     		strh	r2, [r3, #0]	@ movhi
 18643              	.L31:
 456:../StdPeripheralDriver/src/stm32f10x_i2c.c ****   }
 457:../StdPeripheralDriver/src/stm32f10x_i2c.c **** }
 18644              		.loc 1 457 0
 18645 0034 07F10C07 		add	r7, r7, #12
 18646 0038 BD46     		mov	sp, r7
 18647 003a 80BC     		pop	{r7}
 18648 003c 7047     		bx	lr
 18649              		.cfi_endproc
 18650              	.LFE37:
 18652 003e 00BF     		.section	.text.I2C_OwnAddress2Config,"ax",%progbits
 18653              		.align	2
 18654              		.global	I2C_OwnAddress2Config
 18655              		.thumb
 18656              		.thumb_func
 18658              	I2C_OwnAddress2Config:
 18659              	.LFB38:
 458:../StdPeripheralDriver/src/stm32f10x_i2c.c **** 
 459:../StdPeripheralDriver/src/stm32f10x_i2c.c **** /**
 460:../StdPeripheralDriver/src/stm32f10x_i2c.c ****   * @brief  Configures the specified I2C own address2.
 461:../StdPeripheralDriver/src/stm32f10x_i2c.c ****   * @param  I2Cx: where x can be 1 or 2 to select the I2C peripheral.
 462:../StdPeripheralDriver/src/stm32f10x_i2c.c ****   * @param  Address: specifies the 7bit I2C own address2.
 463:../StdPeripheralDriver/src/stm32f10x_i2c.c ****   * @retval None.
 464:../StdPeripheralDriver/src/stm32f10x_i2c.c ****   */
 465:../StdPeripheralDriver/src/stm32f10x_i2c.c **** void I2C_OwnAddress2Config(I2C_TypeDef* I2Cx, uint8_t Address)
 466:../StdPeripheralDriver/src/stm32f10x_i2c.c **** {
 18660              		.loc 1 466 0
 18661              		.cfi_startproc
 18662              		@ args = 0, pretend = 0, frame = 16
 18663              		@ frame_needed = 1, uses_anonymous_args = 0
 18664              		@ link register save eliminated.
 18665 0000 80B4     		push	{r7}
 18666              	.LCFI27:
 18667              		.cfi_def_cfa_offset 4
 18668 0002 85B0     		sub	sp, sp, #20
 18669              	.LCFI28:
 18670              		.cfi_def_cfa_offset 24
 18671 0004 00AF     		add	r7, sp, #0
 18672              		.cfi_offset 7, -4
 18673              	.LCFI29:
 18674              		.cfi_def_cfa_register 7
 18675 0006 7860     		str	r0, [r7, #4]
 18676 0008 0B46     		mov	r3, r1
 18677 000a FB70     		strb	r3, [r7, #3]
 467:../StdPeripheralDriver/src/stm32f10x_i2c.c ****   uint16_t tmpreg = 0;
 18678              		.loc 1 467 0
 18679 000c 4FF00003 		mov	r3, #0
 18680 0010 FB81     		strh	r3, [r7, #14]	@ movhi
 468:../StdPeripheralDriver/src/stm32f10x_i2c.c **** 
 469:../StdPeripheralDriver/src/stm32f10x_i2c.c ****   /* Check the parameters */
 470:../StdPeripheralDriver/src/stm32f10x_i2c.c ****   assert_param(IS_I2C_ALL_PERIPH(I2Cx));
 471:../StdPeripheralDriver/src/stm32f10x_i2c.c **** 
 472:../StdPeripheralDriver/src/stm32f10x_i2c.c ****   /* Get the old register value */
 473:../StdPeripheralDriver/src/stm32f10x_i2c.c ****   tmpreg = I2Cx->OAR2;
 18681              		.loc 1 473 0
 18682 0012 7B68     		ldr	r3, [r7, #4]
 18683 0014 9B89     		ldrh	r3, [r3, #12]	@ movhi
 18684 0016 FB81     		strh	r3, [r7, #14]	@ movhi
 474:../StdPeripheralDriver/src/stm32f10x_i2c.c **** 
 475:../StdPeripheralDriver/src/stm32f10x_i2c.c ****   /* Reset I2Cx Own address2 bit [7:1] */
 476:../StdPeripheralDriver/src/stm32f10x_i2c.c ****   tmpreg &= OAR2_ADD2_Reset;
 18685              		.loc 1 476 0
 18686 0018 FB89     		ldrh	r3, [r7, #14]	@ movhi
 18687 001a 23F0FE03 		bic	r3, r3, #254
 18688 001e FB81     		strh	r3, [r7, #14]	@ movhi
 477:../StdPeripheralDriver/src/stm32f10x_i2c.c **** 
 478:../StdPeripheralDriver/src/stm32f10x_i2c.c ****   /* Set I2Cx Own address2 */
 479:../StdPeripheralDriver/src/stm32f10x_i2c.c ****   tmpreg |= (uint16_t)((uint16_t)Address & (uint16_t)0x00FE);
 18689              		.loc 1 479 0
 18690 0020 FB78     		ldrb	r3, [r7, #3]	@ zero_extendqisi2
 18691 0022 9BB2     		uxth	r3, r3
 18692 0024 03F0FE03 		and	r3, r3, #254
 18693 0028 9AB2     		uxth	r2, r3
 18694 002a FB89     		ldrh	r3, [r7, #14]
 18695 002c 42EA0303 		orr	r3, r2, r3
 18696 0030 9BB2     		uxth	r3, r3
 18697 0032 FB81     		strh	r3, [r7, #14]	@ movhi
 480:../StdPeripheralDriver/src/stm32f10x_i2c.c **** 
 481:../StdPeripheralDriver/src/stm32f10x_i2c.c ****   /* Store the new register value */
 482:../StdPeripheralDriver/src/stm32f10x_i2c.c ****   I2Cx->OAR2 = tmpreg;
 18698              		.loc 1 482 0
 18699 0034 7B68     		ldr	r3, [r7, #4]
 18700 0036 FA89     		ldrh	r2, [r7, #14]	@ movhi
 18701 0038 9A81     		strh	r2, [r3, #12]	@ movhi
 483:../StdPeripheralDriver/src/stm32f10x_i2c.c **** }
 18702              		.loc 1 483 0
 18703 003a 07F11407 		add	r7, r7, #20
 18704 003e BD46     		mov	sp, r7
 18705 0040 80BC     		pop	{r7}
 18706 0042 7047     		bx	lr
 18707              		.cfi_endproc
 18708              	.LFE38:
 18710              		.section	.text.I2C_DualAddressCmd,"ax",%progbits
 18711              		.align	2
 18712              		.global	I2C_DualAddressCmd
 18713              		.thumb
 18714              		.thumb_func
 18716              	I2C_DualAddressCmd:
 18717              	.LFB39:
 484:../StdPeripheralDriver/src/stm32f10x_i2c.c **** 
 485:../StdPeripheralDriver/src/stm32f10x_i2c.c **** /**
 486:../StdPeripheralDriver/src/stm32f10x_i2c.c ****   * @brief  Enables or disables the specified I2C dual addressing mode.
 487:../StdPeripheralDriver/src/stm32f10x_i2c.c ****   * @param  I2Cx: where x can be 1 or 2 to select the I2C peripheral.
 488:../StdPeripheralDriver/src/stm32f10x_i2c.c ****   * @param  NewState: new state of the I2C dual addressing mode.
 489:../StdPeripheralDriver/src/stm32f10x_i2c.c ****   *   This parameter can be: ENABLE or DISABLE.
 490:../StdPeripheralDriver/src/stm32f10x_i2c.c ****   * @retval None
 491:../StdPeripheralDriver/src/stm32f10x_i2c.c ****   */
 492:../StdPeripheralDriver/src/stm32f10x_i2c.c **** void I2C_DualAddressCmd(I2C_TypeDef* I2Cx, FunctionalState NewState)
 493:../StdPeripheralDriver/src/stm32f10x_i2c.c **** {
 18718              		.loc 1 493 0
 18719              		.cfi_startproc
 18720              		@ args = 0, pretend = 0, frame = 8
 18721              		@ frame_needed = 1, uses_anonymous_args = 0
 18722              		@ link register save eliminated.
 18723 0000 80B4     		push	{r7}
 18724              	.LCFI30:
 18725              		.cfi_def_cfa_offset 4
 18726 0002 83B0     		sub	sp, sp, #12
 18727              	.LCFI31:
 18728              		.cfi_def_cfa_offset 16
 18729 0004 00AF     		add	r7, sp, #0
 18730              		.cfi_offset 7, -4
 18731              	.LCFI32:
 18732              		.cfi_def_cfa_register 7
 18733 0006 7860     		str	r0, [r7, #4]
 18734 0008 0B46     		mov	r3, r1
 18735 000a FB70     		strb	r3, [r7, #3]
 494:../StdPeripheralDriver/src/stm32f10x_i2c.c ****   /* Check the parameters */
 495:../StdPeripheralDriver/src/stm32f10x_i2c.c ****   assert_param(IS_I2C_ALL_PERIPH(I2Cx));
 496:../StdPeripheralDriver/src/stm32f10x_i2c.c ****   assert_param(IS_FUNCTIONAL_STATE(NewState));
 497:../StdPeripheralDriver/src/stm32f10x_i2c.c ****   if (NewState != DISABLE)
 18736              		.loc 1 497 0
 18737 000c FB78     		ldrb	r3, [r7, #3]	@ zero_extendqisi2
 18738 000e 002B     		cmp	r3, #0
 18739 0010 08D0     		beq	.L36
 498:../StdPeripheralDriver/src/stm32f10x_i2c.c ****   {
 499:../StdPeripheralDriver/src/stm32f10x_i2c.c ****     /* Enable dual addressing mode */
 500:../StdPeripheralDriver/src/stm32f10x_i2c.c ****     I2Cx->OAR2 |= OAR2_ENDUAL_Set;
 18740              		.loc 1 500 0
 18741 0012 7B68     		ldr	r3, [r7, #4]
 18742 0014 9B89     		ldrh	r3, [r3, #12]	@ movhi
 18743 0016 9BB2     		uxth	r3, r3
 18744 0018 43F00103 		orr	r3, r3, #1
 18745 001c 9AB2     		uxth	r2, r3
 18746 001e 7B68     		ldr	r3, [r7, #4]
 18747 0020 9A81     		strh	r2, [r3, #12]	@ movhi
 18748 0022 07E0     		b	.L35
 18749              	.L36:
 501:../StdPeripheralDriver/src/stm32f10x_i2c.c ****   }
 502:../StdPeripheralDriver/src/stm32f10x_i2c.c ****   else
 503:../StdPeripheralDriver/src/stm32f10x_i2c.c ****   {
 504:../StdPeripheralDriver/src/stm32f10x_i2c.c ****     /* Disable dual addressing mode */
 505:../StdPeripheralDriver/src/stm32f10x_i2c.c ****     I2Cx->OAR2 &= OAR2_ENDUAL_Reset;
 18750              		.loc 1 505 0
 18751 0024 7B68     		ldr	r3, [r7, #4]
 18752 0026 9B89     		ldrh	r3, [r3, #12]	@ movhi
 18753 0028 9BB2     		uxth	r3, r3
 18754 002a 23F00103 		bic	r3, r3, #1
 18755 002e 9AB2     		uxth	r2, r3
 18756 0030 7B68     		ldr	r3, [r7, #4]
 18757 0032 9A81     		strh	r2, [r3, #12]	@ movhi
 18758              	.L35:
 506:../StdPeripheralDriver/src/stm32f10x_i2c.c ****   }
 507:../StdPeripheralDriver/src/stm32f10x_i2c.c **** }
 18759              		.loc 1 507 0
 18760 0034 07F10C07 		add	r7, r7, #12
 18761 0038 BD46     		mov	sp, r7
 18762 003a 80BC     		pop	{r7}
 18763 003c 7047     		bx	lr
 18764              		.cfi_endproc
 18765              	.LFE39:
 18767 003e 00BF     		.section	.text.I2C_GeneralCallCmd,"ax",%progbits
 18768              		.align	2
 18769              		.global	I2C_GeneralCallCmd
 18770              		.thumb
 18771              		.thumb_func
 18773              	I2C_GeneralCallCmd:
 18774              	.LFB40:
 508:../StdPeripheralDriver/src/stm32f10x_i2c.c **** 
 509:../StdPeripheralDriver/src/stm32f10x_i2c.c **** /**
 510:../StdPeripheralDriver/src/stm32f10x_i2c.c ****   * @brief  Enables or disables the specified I2C general call feature.
 511:../StdPeripheralDriver/src/stm32f10x_i2c.c ****   * @param  I2Cx: where x can be 1 or 2 to select the I2C peripheral.
 512:../StdPeripheralDriver/src/stm32f10x_i2c.c ****   * @param  NewState: new state of the I2C General call.
 513:../StdPeripheralDriver/src/stm32f10x_i2c.c ****   *   This parameter can be: ENABLE or DISABLE.
 514:../StdPeripheralDriver/src/stm32f10x_i2c.c ****   * @retval None
 515:../StdPeripheralDriver/src/stm32f10x_i2c.c ****   */
 516:../StdPeripheralDriver/src/stm32f10x_i2c.c **** void I2C_GeneralCallCmd(I2C_TypeDef* I2Cx, FunctionalState NewState)
 517:../StdPeripheralDriver/src/stm32f10x_i2c.c **** {
 18775              		.loc 1 517 0
 18776              		.cfi_startproc
 18777              		@ args = 0, pretend = 0, frame = 8
 18778              		@ frame_needed = 1, uses_anonymous_args = 0
 18779              		@ link register save eliminated.
 18780 0000 80B4     		push	{r7}
 18781              	.LCFI33:
 18782              		.cfi_def_cfa_offset 4
 18783 0002 83B0     		sub	sp, sp, #12
 18784              	.LCFI34:
 18785              		.cfi_def_cfa_offset 16
 18786 0004 00AF     		add	r7, sp, #0
 18787              		.cfi_offset 7, -4
 18788              	.LCFI35:
 18789              		.cfi_def_cfa_register 7
 18790 0006 7860     		str	r0, [r7, #4]
 18791 0008 0B46     		mov	r3, r1
 18792 000a FB70     		strb	r3, [r7, #3]
 518:../StdPeripheralDriver/src/stm32f10x_i2c.c ****   /* Check the parameters */
 519:../StdPeripheralDriver/src/stm32f10x_i2c.c ****   assert_param(IS_I2C_ALL_PERIPH(I2Cx));
 520:../StdPeripheralDriver/src/stm32f10x_i2c.c ****   assert_param(IS_FUNCTIONAL_STATE(NewState));
 521:../StdPeripheralDriver/src/stm32f10x_i2c.c ****   if (NewState != DISABLE)
 18793              		.loc 1 521 0
 18794 000c FB78     		ldrb	r3, [r7, #3]	@ zero_extendqisi2
 18795 000e 002B     		cmp	r3, #0
 18796 0010 08D0     		beq	.L39
 522:../StdPeripheralDriver/src/stm32f10x_i2c.c ****   {
 523:../StdPeripheralDriver/src/stm32f10x_i2c.c ****     /* Enable generall call */
 524:../StdPeripheralDriver/src/stm32f10x_i2c.c ****     I2Cx->CR1 |= CR1_ENGC_Set;
 18797              		.loc 1 524 0
 18798 0012 7B68     		ldr	r3, [r7, #4]
 18799 0014 1B88     		ldrh	r3, [r3, #0]	@ movhi
 18800 0016 9BB2     		uxth	r3, r3
 18801 0018 43F04003 		orr	r3, r3, #64
 18802 001c 9AB2     		uxth	r2, r3
 18803 001e 7B68     		ldr	r3, [r7, #4]
 18804 0020 1A80     		strh	r2, [r3, #0]	@ movhi
 18805 0022 07E0     		b	.L38
 18806              	.L39:
 525:../StdPeripheralDriver/src/stm32f10x_i2c.c ****   }
 526:../StdPeripheralDriver/src/stm32f10x_i2c.c ****   else
 527:../StdPeripheralDriver/src/stm32f10x_i2c.c ****   {
 528:../StdPeripheralDriver/src/stm32f10x_i2c.c ****     /* Disable generall call */
 529:../StdPeripheralDriver/src/stm32f10x_i2c.c ****     I2Cx->CR1 &= CR1_ENGC_Reset;
 18807              		.loc 1 529 0
 18808 0024 7B68     		ldr	r3, [r7, #4]
 18809 0026 1B88     		ldrh	r3, [r3, #0]	@ movhi
 18810 0028 9BB2     		uxth	r3, r3
 18811 002a 23F04003 		bic	r3, r3, #64
 18812 002e 9AB2     		uxth	r2, r3
 18813 0030 7B68     		ldr	r3, [r7, #4]
 18814 0032 1A80     		strh	r2, [r3, #0]	@ movhi
 18815              	.L38:
 530:../StdPeripheralDriver/src/stm32f10x_i2c.c ****   }
 531:../StdPeripheralDriver/src/stm32f10x_i2c.c **** }
 18816              		.loc 1 531 0
 18817 0034 07F10C07 		add	r7, r7, #12
 18818 0038 BD46     		mov	sp, r7
 18819 003a 80BC     		pop	{r7}
 18820 003c 7047     		bx	lr
 18821              		.cfi_endproc
 18822              	.LFE40:
 18824 003e 00BF     		.section	.text.I2C_ITConfig,"ax",%progbits
 18825              		.align	2
 18826              		.global	I2C_ITConfig
 18827              		.thumb
 18828              		.thumb_func
 18830              	I2C_ITConfig:
 18831              	.LFB41:
 532:../StdPeripheralDriver/src/stm32f10x_i2c.c **** 
 533:../StdPeripheralDriver/src/stm32f10x_i2c.c **** /**
 534:../StdPeripheralDriver/src/stm32f10x_i2c.c ****   * @brief  Enables or disables the specified I2C interrupts.
 535:../StdPeripheralDriver/src/stm32f10x_i2c.c ****   * @param  I2Cx: where x can be 1 or 2 to select the I2C peripheral.
 536:../StdPeripheralDriver/src/stm32f10x_i2c.c ****   * @param  I2C_IT: specifies the I2C interrupts sources to be enabled or disabled. 
 537:../StdPeripheralDriver/src/stm32f10x_i2c.c ****   *   This parameter can be any combination of the following values:
 538:../StdPeripheralDriver/src/stm32f10x_i2c.c ****   *     @arg I2C_IT_BUF: Buffer interrupt mask
 539:../StdPeripheralDriver/src/stm32f10x_i2c.c ****   *     @arg I2C_IT_EVT: Event interrupt mask
 540:../StdPeripheralDriver/src/stm32f10x_i2c.c ****   *     @arg I2C_IT_ERR: Error interrupt mask
 541:../StdPeripheralDriver/src/stm32f10x_i2c.c ****   * @param  NewState: new state of the specified I2C interrupts.
 542:../StdPeripheralDriver/src/stm32f10x_i2c.c ****   *   This parameter can be: ENABLE or DISABLE.
 543:../StdPeripheralDriver/src/stm32f10x_i2c.c ****   * @retval None
 544:../StdPeripheralDriver/src/stm32f10x_i2c.c ****   */
 545:../StdPeripheralDriver/src/stm32f10x_i2c.c **** void I2C_ITConfig(I2C_TypeDef* I2Cx, uint16_t I2C_IT, FunctionalState NewState)
 546:../StdPeripheralDriver/src/stm32f10x_i2c.c **** {
 18832              		.loc 1 546 0
 18833              		.cfi_startproc
 18834              		@ args = 0, pretend = 0, frame = 8
 18835              		@ frame_needed = 1, uses_anonymous_args = 0
 18836              		@ link register save eliminated.
 18837 0000 80B4     		push	{r7}
 18838              	.LCFI36:
 18839              		.cfi_def_cfa_offset 4
 18840 0002 83B0     		sub	sp, sp, #12
 18841              	.LCFI37:
 18842              		.cfi_def_cfa_offset 16
 18843 0004 00AF     		add	r7, sp, #0
 18844              		.cfi_offset 7, -4
 18845              	.LCFI38:
 18846              		.cfi_def_cfa_register 7
 18847 0006 7860     		str	r0, [r7, #4]
 18848 0008 1346     		mov	r3, r2
 18849 000a 0A46     		mov	r2, r1	@ movhi
 18850 000c 7A80     		strh	r2, [r7, #2]	@ movhi
 18851 000e 7B70     		strb	r3, [r7, #1]
 547:../StdPeripheralDriver/src/stm32f10x_i2c.c ****   /* Check the parameters */
 548:../StdPeripheralDriver/src/stm32f10x_i2c.c ****   assert_param(IS_I2C_ALL_PERIPH(I2Cx));
 549:../StdPeripheralDriver/src/stm32f10x_i2c.c ****   assert_param(IS_FUNCTIONAL_STATE(NewState));
 550:../StdPeripheralDriver/src/stm32f10x_i2c.c ****   assert_param(IS_I2C_CONFIG_IT(I2C_IT));
 551:../StdPeripheralDriver/src/stm32f10x_i2c.c ****   
 552:../StdPeripheralDriver/src/stm32f10x_i2c.c ****   if (NewState != DISABLE)
 18852              		.loc 1 552 0
 18853 0010 7B78     		ldrb	r3, [r7, #1]	@ zero_extendqisi2
 18854 0012 002B     		cmp	r3, #0
 18855 0014 09D0     		beq	.L42
 553:../StdPeripheralDriver/src/stm32f10x_i2c.c ****   {
 554:../StdPeripheralDriver/src/stm32f10x_i2c.c ****     /* Enable the selected I2C interrupts */
 555:../StdPeripheralDriver/src/stm32f10x_i2c.c ****     I2Cx->CR2 |= I2C_IT;
 18856              		.loc 1 555 0
 18857 0016 7B68     		ldr	r3, [r7, #4]
 18858 0018 9B88     		ldrh	r3, [r3, #4]	@ movhi
 18859 001a 9AB2     		uxth	r2, r3
 18860 001c 7B88     		ldrh	r3, [r7, #2]	@ movhi
 18861 001e 42EA0303 		orr	r3, r2, r3
 18862 0022 9AB2     		uxth	r2, r3
 18863 0024 7B68     		ldr	r3, [r7, #4]
 18864 0026 9A80     		strh	r2, [r3, #4]	@ movhi
 18865 0028 0BE0     		b	.L41
 18866              	.L42:
 556:../StdPeripheralDriver/src/stm32f10x_i2c.c ****   }
 557:../StdPeripheralDriver/src/stm32f10x_i2c.c ****   else
 558:../StdPeripheralDriver/src/stm32f10x_i2c.c ****   {
 559:../StdPeripheralDriver/src/stm32f10x_i2c.c ****     /* Disable the selected I2C interrupts */
 560:../StdPeripheralDriver/src/stm32f10x_i2c.c ****     I2Cx->CR2 &= (uint16_t)~I2C_IT;
 18867              		.loc 1 560 0
 18868 002a 7B68     		ldr	r3, [r7, #4]
 18869 002c 9B88     		ldrh	r3, [r3, #4]	@ movhi
 18870 002e 9AB2     		uxth	r2, r3
 18871 0030 7B88     		ldrh	r3, [r7, #2]	@ movhi
 18872 0032 6FEA0303 		mvn	r3, r3
 18873 0036 9BB2     		uxth	r3, r3
 18874 0038 02EA0303 		and	r3, r2, r3
 18875 003c 9AB2     		uxth	r2, r3
 18876 003e 7B68     		ldr	r3, [r7, #4]
 18877 0040 9A80     		strh	r2, [r3, #4]	@ movhi
 18878              	.L41:
 561:../StdPeripheralDriver/src/stm32f10x_i2c.c ****   }
 562:../StdPeripheralDriver/src/stm32f10x_i2c.c **** }
 18879              		.loc 1 562 0
 18880 0042 07F10C07 		add	r7, r7, #12
 18881 0046 BD46     		mov	sp, r7
 18882 0048 80BC     		pop	{r7}
 18883 004a 7047     		bx	lr
 18884              		.cfi_endproc
 18885              	.LFE41:
 18887              		.section	.text.I2C_SendData,"ax",%progbits
 18888              		.align	2
 18889              		.global	I2C_SendData
 18890              		.thumb
 18891              		.thumb_func
 18893              	I2C_SendData:
 18894              	.LFB42:
 563:../StdPeripheralDriver/src/stm32f10x_i2c.c **** 
 564:../StdPeripheralDriver/src/stm32f10x_i2c.c **** /**
 565:../StdPeripheralDriver/src/stm32f10x_i2c.c ****   * @brief  Sends a data byte through the I2Cx peripheral.
 566:../StdPeripheralDriver/src/stm32f10x_i2c.c ****   * @param  I2Cx: where x can be 1 or 2 to select the I2C peripheral.
 567:../StdPeripheralDriver/src/stm32f10x_i2c.c ****   * @param  Data: Byte to be transmitted..
 568:../StdPeripheralDriver/src/stm32f10x_i2c.c ****   * @retval None
 569:../StdPeripheralDriver/src/stm32f10x_i2c.c ****   */
 570:../StdPeripheralDriver/src/stm32f10x_i2c.c **** void I2C_SendData(I2C_TypeDef* I2Cx, uint8_t Data)
 571:../StdPeripheralDriver/src/stm32f10x_i2c.c **** {
 18895              		.loc 1 571 0
 18896              		.cfi_startproc
 18897              		@ args = 0, pretend = 0, frame = 8
 18898              		@ frame_needed = 1, uses_anonymous_args = 0
 18899              		@ link register save eliminated.
 18900 0000 80B4     		push	{r7}
 18901              	.LCFI39:
 18902              		.cfi_def_cfa_offset 4
 18903 0002 83B0     		sub	sp, sp, #12
 18904              	.LCFI40:
 18905              		.cfi_def_cfa_offset 16
 18906 0004 00AF     		add	r7, sp, #0
 18907              		.cfi_offset 7, -4
 18908              	.LCFI41:
 18909              		.cfi_def_cfa_register 7
 18910 0006 7860     		str	r0, [r7, #4]
 18911 0008 0B46     		mov	r3, r1
 18912 000a FB70     		strb	r3, [r7, #3]
 572:../StdPeripheralDriver/src/stm32f10x_i2c.c ****   /* Check the parameters */
 573:../StdPeripheralDriver/src/stm32f10x_i2c.c ****   assert_param(IS_I2C_ALL_PERIPH(I2Cx));
 574:../StdPeripheralDriver/src/stm32f10x_i2c.c ****   /* Write in the DR register the data to be sent */
 575:../StdPeripheralDriver/src/stm32f10x_i2c.c ****   I2Cx->DR = Data;
 18913              		.loc 1 575 0
 18914 000c FB78     		ldrb	r3, [r7, #3]	@ zero_extendqisi2
 18915 000e 9AB2     		uxth	r2, r3
 18916 0010 7B68     		ldr	r3, [r7, #4]
 18917 0012 1A82     		strh	r2, [r3, #16]	@ movhi
 576:../StdPeripheralDriver/src/stm32f10x_i2c.c **** }
 18918              		.loc 1 576 0
 18919 0014 07F10C07 		add	r7, r7, #12
 18920 0018 BD46     		mov	sp, r7
 18921 001a 80BC     		pop	{r7}
 18922 001c 7047     		bx	lr
 18923              		.cfi_endproc
 18924              	.LFE42:
 18926 001e 00BF     		.section	.text.I2C_ReceiveData,"ax",%progbits
 18927              		.align	2
 18928              		.global	I2C_ReceiveData
 18929              		.thumb
 18930              		.thumb_func
 18932              	I2C_ReceiveData:
 18933              	.LFB43:
 577:../StdPeripheralDriver/src/stm32f10x_i2c.c **** 
 578:../StdPeripheralDriver/src/stm32f10x_i2c.c **** /**
 579:../StdPeripheralDriver/src/stm32f10x_i2c.c ****   * @brief  Returns the most recent received data by the I2Cx peripheral.
 580:../StdPeripheralDriver/src/stm32f10x_i2c.c ****   * @param  I2Cx: where x can be 1 or 2 to select the I2C peripheral.
 581:../StdPeripheralDriver/src/stm32f10x_i2c.c ****   * @retval The value of the received data.
 582:../StdPeripheralDriver/src/stm32f10x_i2c.c ****   */
 583:../StdPeripheralDriver/src/stm32f10x_i2c.c **** uint8_t I2C_ReceiveData(I2C_TypeDef* I2Cx)
 584:../StdPeripheralDriver/src/stm32f10x_i2c.c **** {
 18934              		.loc 1 584 0
 18935              		.cfi_startproc
 18936              		@ args = 0, pretend = 0, frame = 8
 18937              		@ frame_needed = 1, uses_anonymous_args = 0
 18938              		@ link register save eliminated.
 18939 0000 80B4     		push	{r7}
 18940              	.LCFI42:
 18941              		.cfi_def_cfa_offset 4
 18942 0002 83B0     		sub	sp, sp, #12
 18943              	.LCFI43:
 18944              		.cfi_def_cfa_offset 16
 18945 0004 00AF     		add	r7, sp, #0
 18946              		.cfi_offset 7, -4
 18947              	.LCFI44:
 18948              		.cfi_def_cfa_register 7
 18949 0006 7860     		str	r0, [r7, #4]
 585:../StdPeripheralDriver/src/stm32f10x_i2c.c ****   /* Check the parameters */
 586:../StdPeripheralDriver/src/stm32f10x_i2c.c ****   assert_param(IS_I2C_ALL_PERIPH(I2Cx));
 587:../StdPeripheralDriver/src/stm32f10x_i2c.c ****   /* Return the data in the DR register */
 588:../StdPeripheralDriver/src/stm32f10x_i2c.c ****   return (uint8_t)I2Cx->DR;
 18950              		.loc 1 588 0
 18951 0008 7B68     		ldr	r3, [r7, #4]
 18952 000a 1B8A     		ldrh	r3, [r3, #16]	@ movhi
 18953 000c 9BB2     		uxth	r3, r3
 18954 000e DBB2     		uxtb	r3, r3
 589:../StdPeripheralDriver/src/stm32f10x_i2c.c **** }
 18955              		.loc 1 589 0
 18956 0010 1846     		mov	r0, r3
 18957 0012 07F10C07 		add	r7, r7, #12
 18958 0016 BD46     		mov	sp, r7
 18959 0018 80BC     		pop	{r7}
 18960 001a 7047     		bx	lr
 18961              		.cfi_endproc
 18962              	.LFE43:
 18964              		.section	.text.I2C_Send7bitAddress,"ax",%progbits
 18965              		.align	2
 18966              		.global	I2C_Send7bitAddress
 18967              		.thumb
 18968              		.thumb_func
 18970              	I2C_Send7bitAddress:
 18971              	.LFB44:
 590:../StdPeripheralDriver/src/stm32f10x_i2c.c **** 
 591:../StdPeripheralDriver/src/stm32f10x_i2c.c **** /**
 592:../StdPeripheralDriver/src/stm32f10x_i2c.c ****   * @brief  Transmits the address byte to select the slave device.
 593:../StdPeripheralDriver/src/stm32f10x_i2c.c ****   * @param  I2Cx: where x can be 1 or 2 to select the I2C peripheral.
 594:../StdPeripheralDriver/src/stm32f10x_i2c.c ****   * @param  Address: specifies the slave address which will be transmitted
 595:../StdPeripheralDriver/src/stm32f10x_i2c.c ****   * @param  I2C_Direction: specifies whether the I2C device will be a
 596:../StdPeripheralDriver/src/stm32f10x_i2c.c ****   *   Transmitter or a Receiver. This parameter can be one of the following values
 597:../StdPeripheralDriver/src/stm32f10x_i2c.c ****   *     @arg I2C_Direction_Transmitter: Transmitter mode
 598:../StdPeripheralDriver/src/stm32f10x_i2c.c ****   *     @arg I2C_Direction_Receiver: Receiver mode
 599:../StdPeripheralDriver/src/stm32f10x_i2c.c ****   * @retval None.
 600:../StdPeripheralDriver/src/stm32f10x_i2c.c ****   */
 601:../StdPeripheralDriver/src/stm32f10x_i2c.c **** void I2C_Send7bitAddress(I2C_TypeDef* I2Cx, uint8_t Address, uint8_t I2C_Direction)
 602:../StdPeripheralDriver/src/stm32f10x_i2c.c **** {
 18972              		.loc 1 602 0
 18973              		.cfi_startproc
 18974              		@ args = 0, pretend = 0, frame = 8
 18975              		@ frame_needed = 1, uses_anonymous_args = 0
 18976              		@ link register save eliminated.
 18977 0000 80B4     		push	{r7}
 18978              	.LCFI45:
 18979              		.cfi_def_cfa_offset 4
 18980 0002 83B0     		sub	sp, sp, #12
 18981              	.LCFI46:
 18982              		.cfi_def_cfa_offset 16
 18983 0004 00AF     		add	r7, sp, #0
 18984              		.cfi_offset 7, -4
 18985              	.LCFI47:
 18986              		.cfi_def_cfa_register 7
 18987 0006 7860     		str	r0, [r7, #4]
 18988 0008 1346     		mov	r3, r2
 18989 000a 0A46     		mov	r2, r1
 18990 000c FA70     		strb	r2, [r7, #3]
 18991 000e BB70     		strb	r3, [r7, #2]
 603:../StdPeripheralDriver/src/stm32f10x_i2c.c ****   /* Check the parameters */
 604:../StdPeripheralDriver/src/stm32f10x_i2c.c ****   assert_param(IS_I2C_ALL_PERIPH(I2Cx));
 605:../StdPeripheralDriver/src/stm32f10x_i2c.c ****   assert_param(IS_I2C_DIRECTION(I2C_Direction));
 606:../StdPeripheralDriver/src/stm32f10x_i2c.c ****   /* Test on the direction to set/reset the read/write bit */
 607:../StdPeripheralDriver/src/stm32f10x_i2c.c ****   if (I2C_Direction != I2C_Direction_Transmitter)
 18992              		.loc 1 607 0
 18993 0010 BB78     		ldrb	r3, [r7, #2]	@ zero_extendqisi2
 18994 0012 002B     		cmp	r3, #0
 18995 0014 04D0     		beq	.L47
 608:../StdPeripheralDriver/src/stm32f10x_i2c.c ****   {
 609:../StdPeripheralDriver/src/stm32f10x_i2c.c ****     /* Set the address bit0 for read */
 610:../StdPeripheralDriver/src/stm32f10x_i2c.c ****     Address |= OAR1_ADD0_Set;
 18996              		.loc 1 610 0
 18997 0016 FB78     		ldrb	r3, [r7, #3]
 18998 0018 43F00103 		orr	r3, r3, #1
 18999 001c FB70     		strb	r3, [r7, #3]
 19000 001e 03E0     		b	.L48
 19001              	.L47:
 611:../StdPeripheralDriver/src/stm32f10x_i2c.c ****   }
 612:../StdPeripheralDriver/src/stm32f10x_i2c.c ****   else
 613:../StdPeripheralDriver/src/stm32f10x_i2c.c ****   {
 614:../StdPeripheralDriver/src/stm32f10x_i2c.c ****     /* Reset the address bit0 for write */
 615:../StdPeripheralDriver/src/stm32f10x_i2c.c ****     Address &= OAR1_ADD0_Reset;
 19002              		.loc 1 615 0
 19003 0020 FB78     		ldrb	r3, [r7, #3]
 19004 0022 23F00103 		bic	r3, r3, #1
 19005 0026 FB70     		strb	r3, [r7, #3]
 19006              	.L48:
 616:../StdPeripheralDriver/src/stm32f10x_i2c.c ****   }
 617:../StdPeripheralDriver/src/stm32f10x_i2c.c ****   /* Send the address */
 618:../StdPeripheralDriver/src/stm32f10x_i2c.c ****   I2Cx->DR = Address;
 19007              		.loc 1 618 0
 19008 0028 FB78     		ldrb	r3, [r7, #3]	@ zero_extendqisi2
 19009 002a 9AB2     		uxth	r2, r3
 19010 002c 7B68     		ldr	r3, [r7, #4]
 19011 002e 1A82     		strh	r2, [r3, #16]	@ movhi
 619:../StdPeripheralDriver/src/stm32f10x_i2c.c **** }
 19012              		.loc 1 619 0
 19013 0030 07F10C07 		add	r7, r7, #12
 19014 0034 BD46     		mov	sp, r7
 19015 0036 80BC     		pop	{r7}
 19016 0038 7047     		bx	lr
 19017              		.cfi_endproc
 19018              	.LFE44:
 19020 003a 00BF     		.section	.text.I2C_ReadRegister,"ax",%progbits
 19021              		.align	2
 19022              		.global	I2C_ReadRegister
 19023              		.thumb
 19024              		.thumb_func
 19026              	I2C_ReadRegister:
 19027              	.LFB45:
 620:../StdPeripheralDriver/src/stm32f10x_i2c.c **** 
 621:../StdPeripheralDriver/src/stm32f10x_i2c.c **** /**
 622:../StdPeripheralDriver/src/stm32f10x_i2c.c ****   * @brief  Reads the specified I2C register and returns its value.
 623:../StdPeripheralDriver/src/stm32f10x_i2c.c ****   * @param  I2C_Register: specifies the register to read.
 624:../StdPeripheralDriver/src/stm32f10x_i2c.c ****   *   This parameter can be one of the following values:
 625:../StdPeripheralDriver/src/stm32f10x_i2c.c ****   *     @arg I2C_Register_CR1:  CR1 register.
 626:../StdPeripheralDriver/src/stm32f10x_i2c.c ****   *     @arg I2C_Register_CR2:   CR2 register.
 627:../StdPeripheralDriver/src/stm32f10x_i2c.c ****   *     @arg I2C_Register_OAR1:  OAR1 register.
 628:../StdPeripheralDriver/src/stm32f10x_i2c.c ****   *     @arg I2C_Register_OAR2:  OAR2 register.
 629:../StdPeripheralDriver/src/stm32f10x_i2c.c ****   *     @arg I2C_Register_DR:    DR register.
 630:../StdPeripheralDriver/src/stm32f10x_i2c.c ****   *     @arg I2C_Register_SR1:   SR1 register.
 631:../StdPeripheralDriver/src/stm32f10x_i2c.c ****   *     @arg I2C_Register_SR2:   SR2 register.
 632:../StdPeripheralDriver/src/stm32f10x_i2c.c ****   *     @arg I2C_Register_CCR:   CCR register.
 633:../StdPeripheralDriver/src/stm32f10x_i2c.c ****   *     @arg I2C_Register_TRISE: TRISE register.
 634:../StdPeripheralDriver/src/stm32f10x_i2c.c ****   * @retval The value of the read register.
 635:../StdPeripheralDriver/src/stm32f10x_i2c.c ****   */
 636:../StdPeripheralDriver/src/stm32f10x_i2c.c **** uint16_t I2C_ReadRegister(I2C_TypeDef* I2Cx, uint8_t I2C_Register)
 637:../StdPeripheralDriver/src/stm32f10x_i2c.c **** {
 19028              		.loc 1 637 0
 19029              		.cfi_startproc
 19030              		@ args = 0, pretend = 0, frame = 16
 19031              		@ frame_needed = 1, uses_anonymous_args = 0
 19032              		@ link register save eliminated.
 19033 0000 80B4     		push	{r7}
 19034              	.LCFI48:
 19035              		.cfi_def_cfa_offset 4
 19036 0002 85B0     		sub	sp, sp, #20
 19037              	.LCFI49:
 19038              		.cfi_def_cfa_offset 24
 19039 0004 00AF     		add	r7, sp, #0
 19040              		.cfi_offset 7, -4
 19041              	.LCFI50:
 19042              		.cfi_def_cfa_register 7
 19043 0006 7860     		str	r0, [r7, #4]
 19044 0008 0B46     		mov	r3, r1
 19045 000a FB70     		strb	r3, [r7, #3]
 638:../StdPeripheralDriver/src/stm32f10x_i2c.c ****   __IO uint32_t tmp = 0;
 19046              		.loc 1 638 0
 19047 000c 4FF00003 		mov	r3, #0
 19048 0010 FB60     		str	r3, [r7, #12]
 639:../StdPeripheralDriver/src/stm32f10x_i2c.c **** 
 640:../StdPeripheralDriver/src/stm32f10x_i2c.c ****   /* Check the parameters */
 641:../StdPeripheralDriver/src/stm32f10x_i2c.c ****   assert_param(IS_I2C_ALL_PERIPH(I2Cx));
 642:../StdPeripheralDriver/src/stm32f10x_i2c.c ****   assert_param(IS_I2C_REGISTER(I2C_Register));
 643:../StdPeripheralDriver/src/stm32f10x_i2c.c **** 
 644:../StdPeripheralDriver/src/stm32f10x_i2c.c ****   tmp = (uint32_t) I2Cx;
 19049              		.loc 1 644 0
 19050 0012 7B68     		ldr	r3, [r7, #4]
 19051 0014 FB60     		str	r3, [r7, #12]
 645:../StdPeripheralDriver/src/stm32f10x_i2c.c ****   tmp += I2C_Register;
 19052              		.loc 1 645 0
 19053 0016 FA78     		ldrb	r2, [r7, #3]	@ zero_extendqisi2
 19054 0018 FB68     		ldr	r3, [r7, #12]
 19055 001a D318     		adds	r3, r2, r3
 19056 001c FB60     		str	r3, [r7, #12]
 646:../StdPeripheralDriver/src/stm32f10x_i2c.c **** 
 647:../StdPeripheralDriver/src/stm32f10x_i2c.c ****   /* Return the selected register value */
 648:../StdPeripheralDriver/src/stm32f10x_i2c.c ****   return (*(__IO uint16_t *) tmp);
 19057              		.loc 1 648 0
 19058 001e FB68     		ldr	r3, [r7, #12]
 19059 0020 1B88     		ldrh	r3, [r3, #0]	@ movhi
 19060 0022 9BB2     		uxth	r3, r3
 649:../StdPeripheralDriver/src/stm32f10x_i2c.c **** }
 19061              		.loc 1 649 0
 19062 0024 1846     		mov	r0, r3
 19063 0026 07F11407 		add	r7, r7, #20
 19064 002a BD46     		mov	sp, r7
 19065 002c 80BC     		pop	{r7}
 19066 002e 7047     		bx	lr
 19067              		.cfi_endproc
 19068              	.LFE45:
 19070              		.section	.text.I2C_SoftwareResetCmd,"ax",%progbits
 19071              		.align	2
 19072              		.global	I2C_SoftwareResetCmd
 19073              		.thumb
 19074              		.thumb_func
 19076              	I2C_SoftwareResetCmd:
 19077              	.LFB46:
 650:../StdPeripheralDriver/src/stm32f10x_i2c.c **** 
 651:../StdPeripheralDriver/src/stm32f10x_i2c.c **** /**
 652:../StdPeripheralDriver/src/stm32f10x_i2c.c ****   * @brief  Enables or disables the specified I2C software reset.
 653:../StdPeripheralDriver/src/stm32f10x_i2c.c ****   * @param  I2Cx: where x can be 1 or 2 to select the I2C peripheral.
 654:../StdPeripheralDriver/src/stm32f10x_i2c.c ****   * @param  NewState: new state of the I2C software reset.
 655:../StdPeripheralDriver/src/stm32f10x_i2c.c ****   *   This parameter can be: ENABLE or DISABLE.
 656:../StdPeripheralDriver/src/stm32f10x_i2c.c ****   * @retval None
 657:../StdPeripheralDriver/src/stm32f10x_i2c.c ****   */
 658:../StdPeripheralDriver/src/stm32f10x_i2c.c **** void I2C_SoftwareResetCmd(I2C_TypeDef* I2Cx, FunctionalState NewState)
 659:../StdPeripheralDriver/src/stm32f10x_i2c.c **** {
 19078              		.loc 1 659 0
 19079              		.cfi_startproc
 19080              		@ args = 0, pretend = 0, frame = 8
 19081              		@ frame_needed = 1, uses_anonymous_args = 0
 19082              		@ link register save eliminated.
 19083 0000 80B4     		push	{r7}
 19084              	.LCFI51:
 19085              		.cfi_def_cfa_offset 4
 19086 0002 83B0     		sub	sp, sp, #12
 19087              	.LCFI52:
 19088              		.cfi_def_cfa_offset 16
 19089 0004 00AF     		add	r7, sp, #0
 19090              		.cfi_offset 7, -4
 19091              	.LCFI53:
 19092              		.cfi_def_cfa_register 7
 19093 0006 7860     		str	r0, [r7, #4]
 19094 0008 0B46     		mov	r3, r1
 19095 000a FB70     		strb	r3, [r7, #3]
 660:../StdPeripheralDriver/src/stm32f10x_i2c.c ****   /* Check the parameters */
 661:../StdPeripheralDriver/src/stm32f10x_i2c.c ****   assert_param(IS_I2C_ALL_PERIPH(I2Cx));
 662:../StdPeripheralDriver/src/stm32f10x_i2c.c ****   assert_param(IS_FUNCTIONAL_STATE(NewState));
 663:../StdPeripheralDriver/src/stm32f10x_i2c.c ****   if (NewState != DISABLE)
 19096              		.loc 1 663 0
 19097 000c FB78     		ldrb	r3, [r7, #3]	@ zero_extendqisi2
 19098 000e 002B     		cmp	r3, #0
 19099 0010 0AD0     		beq	.L51
 664:../StdPeripheralDriver/src/stm32f10x_i2c.c ****   {
 665:../StdPeripheralDriver/src/stm32f10x_i2c.c ****     /* Peripheral under reset */
 666:../StdPeripheralDriver/src/stm32f10x_i2c.c ****     I2Cx->CR1 |= CR1_SWRST_Set;
 19100              		.loc 1 666 0
 19101 0012 7B68     		ldr	r3, [r7, #4]
 19102 0014 1B88     		ldrh	r3, [r3, #0]	@ movhi
 19103 0016 9BB2     		uxth	r3, r3
 19104 0018 6FEA4343 		mvn	r3, r3, lsl #17
 19105 001c 6FEA5343 		mvn	r3, r3, lsr #17
 19106 0020 9AB2     		uxth	r2, r3
 19107 0022 7B68     		ldr	r3, [r7, #4]
 19108 0024 1A80     		strh	r2, [r3, #0]	@ movhi
 19109 0026 09E0     		b	.L50
 19110              	.L51:
 667:../StdPeripheralDriver/src/stm32f10x_i2c.c ****   }
 668:../StdPeripheralDriver/src/stm32f10x_i2c.c ****   else
 669:../StdPeripheralDriver/src/stm32f10x_i2c.c ****   {
 670:../StdPeripheralDriver/src/stm32f10x_i2c.c ****     /* Peripheral not under reset */
 671:../StdPeripheralDriver/src/stm32f10x_i2c.c ****     I2Cx->CR1 &= CR1_SWRST_Reset;
 19111              		.loc 1 671 0
 19112 0028 7B68     		ldr	r3, [r7, #4]
 19113 002a 1B88     		ldrh	r3, [r3, #0]	@ movhi
 19114 002c 9BB2     		uxth	r3, r3
 19115 002e 4FEA4343 		lsl	r3, r3, #17
 19116 0032 4FEA5343 		lsr	r3, r3, #17
 19117 0036 9AB2     		uxth	r2, r3
 19118 0038 7B68     		ldr	r3, [r7, #4]
 19119 003a 1A80     		strh	r2, [r3, #0]	@ movhi
 19120              	.L50:
 672:../StdPeripheralDriver/src/stm32f10x_i2c.c ****   }
 673:../StdPeripheralDriver/src/stm32f10x_i2c.c **** }
 19121              		.loc 1 673 0
 19122 003c 07F10C07 		add	r7, r7, #12
 19123 0040 BD46     		mov	sp, r7
 19124 0042 80BC     		pop	{r7}
 19125 0044 7047     		bx	lr
 19126              		.cfi_endproc
 19127              	.LFE46:
 19129 0046 00BF     		.section	.text.I2C_NACKPositionConfig,"ax",%progbits
 19130              		.align	2
 19131              		.global	I2C_NACKPositionConfig
 19132              		.thumb
 19133              		.thumb_func
 19135              	I2C_NACKPositionConfig:
 19136              	.LFB47:
 674:../StdPeripheralDriver/src/stm32f10x_i2c.c **** 
 675:../StdPeripheralDriver/src/stm32f10x_i2c.c **** /**
 676:../StdPeripheralDriver/src/stm32f10x_i2c.c ****   * @brief  Selects the specified I2C NACK position in master receiver mode.
 677:../StdPeripheralDriver/src/stm32f10x_i2c.c ****   *         This function is useful in I2C Master Receiver mode when the number
 678:../StdPeripheralDriver/src/stm32f10x_i2c.c ****   *         of data to be received is equal to 2. In this case, this function 
 679:../StdPeripheralDriver/src/stm32f10x_i2c.c ****   *         should be called (with parameter I2C_NACKPosition_Next) before data 
 680:../StdPeripheralDriver/src/stm32f10x_i2c.c ****   *         reception starts,as described in the 2-byte reception procedure 
 681:../StdPeripheralDriver/src/stm32f10x_i2c.c ****   *         recommended in Reference Manual in Section: Master receiver.                
 682:../StdPeripheralDriver/src/stm32f10x_i2c.c ****   * @param  I2Cx: where x can be 1 or 2 to select the I2C peripheral.
 683:../StdPeripheralDriver/src/stm32f10x_i2c.c ****   * @param  I2C_NACKPosition: specifies the NACK position. 
 684:../StdPeripheralDriver/src/stm32f10x_i2c.c ****   *   This parameter can be one of the following values:
 685:../StdPeripheralDriver/src/stm32f10x_i2c.c ****   *     @arg I2C_NACKPosition_Next: indicates that the next byte will be the last
 686:../StdPeripheralDriver/src/stm32f10x_i2c.c ****   *          received byte.  
 687:../StdPeripheralDriver/src/stm32f10x_i2c.c ****   *     @arg I2C_NACKPosition_Current: indicates that current byte is the last 
 688:../StdPeripheralDriver/src/stm32f10x_i2c.c ****   *          received byte.
 689:../StdPeripheralDriver/src/stm32f10x_i2c.c ****   *            
 690:../StdPeripheralDriver/src/stm32f10x_i2c.c ****   * @note    This function configures the same bit (POS) as I2C_PECPositionConfig() 
 691:../StdPeripheralDriver/src/stm32f10x_i2c.c ****   *          but is intended to be used in I2C mode while I2C_PECPositionConfig() 
 692:../StdPeripheralDriver/src/stm32f10x_i2c.c ****   *          is intended to used in SMBUS mode. 
 693:../StdPeripheralDriver/src/stm32f10x_i2c.c ****   *            
 694:../StdPeripheralDriver/src/stm32f10x_i2c.c ****   * @retval None
 695:../StdPeripheralDriver/src/stm32f10x_i2c.c ****   */
 696:../StdPeripheralDriver/src/stm32f10x_i2c.c **** void I2C_NACKPositionConfig(I2C_TypeDef* I2Cx, uint16_t I2C_NACKPosition)
 697:../StdPeripheralDriver/src/stm32f10x_i2c.c **** {
 19137              		.loc 1 697 0
 19138              		.cfi_startproc
 19139              		@ args = 0, pretend = 0, frame = 8
 19140              		@ frame_needed = 1, uses_anonymous_args = 0
 19141              		@ link register save eliminated.
 19142 0000 80B4     		push	{r7}
 19143              	.LCFI54:
 19144              		.cfi_def_cfa_offset 4
 19145 0002 83B0     		sub	sp, sp, #12
 19146              	.LCFI55:
 19147              		.cfi_def_cfa_offset 16
 19148 0004 00AF     		add	r7, sp, #0
 19149              		.cfi_offset 7, -4
 19150              	.LCFI56:
 19151              		.cfi_def_cfa_register 7
 19152 0006 7860     		str	r0, [r7, #4]
 19153 0008 0B46     		mov	r3, r1
 19154 000a 7B80     		strh	r3, [r7, #2]	@ movhi
 698:../StdPeripheralDriver/src/stm32f10x_i2c.c ****   /* Check the parameters */
 699:../StdPeripheralDriver/src/stm32f10x_i2c.c ****   assert_param(IS_I2C_ALL_PERIPH(I2Cx));
 700:../StdPeripheralDriver/src/stm32f10x_i2c.c ****   assert_param(IS_I2C_NACK_POSITION(I2C_NACKPosition));
 701:../StdPeripheralDriver/src/stm32f10x_i2c.c ****   
 702:../StdPeripheralDriver/src/stm32f10x_i2c.c ****   /* Check the input parameter */
 703:../StdPeripheralDriver/src/stm32f10x_i2c.c ****   if (I2C_NACKPosition == I2C_NACKPosition_Next)
 19155              		.loc 1 703 0
 19156 000c 7B88     		ldrh	r3, [r7, #2]
 19157 000e B3F5006F 		cmp	r3, #2048
 19158 0012 08D1     		bne	.L54
 704:../StdPeripheralDriver/src/stm32f10x_i2c.c ****   {
 705:../StdPeripheralDriver/src/stm32f10x_i2c.c ****     /* Next byte in shift register is the last received byte */
 706:../StdPeripheralDriver/src/stm32f10x_i2c.c ****     I2Cx->CR1 |= I2C_NACKPosition_Next;
 19159              		.loc 1 706 0
 19160 0014 7B68     		ldr	r3, [r7, #4]
 19161 0016 1B88     		ldrh	r3, [r3, #0]	@ movhi
 19162 0018 9BB2     		uxth	r3, r3
 19163 001a 43F40063 		orr	r3, r3, #2048
 19164 001e 9AB2     		uxth	r2, r3
 19165 0020 7B68     		ldr	r3, [r7, #4]
 19166 0022 1A80     		strh	r2, [r3, #0]	@ movhi
 19167 0024 07E0     		b	.L53
 19168              	.L54:
 707:../StdPeripheralDriver/src/stm32f10x_i2c.c ****   }
 708:../StdPeripheralDriver/src/stm32f10x_i2c.c ****   else
 709:../StdPeripheralDriver/src/stm32f10x_i2c.c ****   {
 710:../StdPeripheralDriver/src/stm32f10x_i2c.c ****     /* Current byte in shift register is the last received byte */
 711:../StdPeripheralDriver/src/stm32f10x_i2c.c ****     I2Cx->CR1 &= I2C_NACKPosition_Current;
 19169              		.loc 1 711 0
 19170 0026 7B68     		ldr	r3, [r7, #4]
 19171 0028 1B88     		ldrh	r3, [r3, #0]	@ movhi
 19172 002a 9BB2     		uxth	r3, r3
 19173 002c 23F40063 		bic	r3, r3, #2048
 19174 0030 9AB2     		uxth	r2, r3
 19175 0032 7B68     		ldr	r3, [r7, #4]
 19176 0034 1A80     		strh	r2, [r3, #0]	@ movhi
 19177              	.L53:
 712:../StdPeripheralDriver/src/stm32f10x_i2c.c ****   }
 713:../StdPeripheralDriver/src/stm32f10x_i2c.c **** }
 19178              		.loc 1 713 0
 19179 0036 07F10C07 		add	r7, r7, #12
 19180 003a BD46     		mov	sp, r7
 19181 003c 80BC     		pop	{r7}
 19182 003e 7047     		bx	lr
 19183              		.cfi_endproc
 19184              	.LFE47:
 19186              		.section	.text.I2C_SMBusAlertConfig,"ax",%progbits
 19187              		.align	2
 19188              		.global	I2C_SMBusAlertConfig
 19189              		.thumb
 19190              		.thumb_func
 19192              	I2C_SMBusAlertConfig:
 19193              	.LFB48:
 714:../StdPeripheralDriver/src/stm32f10x_i2c.c **** 
 715:../StdPeripheralDriver/src/stm32f10x_i2c.c **** /**
 716:../StdPeripheralDriver/src/stm32f10x_i2c.c ****   * @brief  Drives the SMBusAlert pin high or low for the specified I2C.
 717:../StdPeripheralDriver/src/stm32f10x_i2c.c ****   * @param  I2Cx: where x can be 1 or 2 to select the I2C peripheral.
 718:../StdPeripheralDriver/src/stm32f10x_i2c.c ****   * @param  I2C_SMBusAlert: specifies SMBAlert pin level. 
 719:../StdPeripheralDriver/src/stm32f10x_i2c.c ****   *   This parameter can be one of the following values:
 720:../StdPeripheralDriver/src/stm32f10x_i2c.c ****   *     @arg I2C_SMBusAlert_Low: SMBAlert pin driven low
 721:../StdPeripheralDriver/src/stm32f10x_i2c.c ****   *     @arg I2C_SMBusAlert_High: SMBAlert pin driven high
 722:../StdPeripheralDriver/src/stm32f10x_i2c.c ****   * @retval None
 723:../StdPeripheralDriver/src/stm32f10x_i2c.c ****   */
 724:../StdPeripheralDriver/src/stm32f10x_i2c.c **** void I2C_SMBusAlertConfig(I2C_TypeDef* I2Cx, uint16_t I2C_SMBusAlert)
 725:../StdPeripheralDriver/src/stm32f10x_i2c.c **** {
 19194              		.loc 1 725 0
 19195              		.cfi_startproc
 19196              		@ args = 0, pretend = 0, frame = 8
 19197              		@ frame_needed = 1, uses_anonymous_args = 0
 19198              		@ link register save eliminated.
 19199 0000 80B4     		push	{r7}
 19200              	.LCFI57:
 19201              		.cfi_def_cfa_offset 4
 19202 0002 83B0     		sub	sp, sp, #12
 19203              	.LCFI58:
 19204              		.cfi_def_cfa_offset 16
 19205 0004 00AF     		add	r7, sp, #0
 19206              		.cfi_offset 7, -4
 19207              	.LCFI59:
 19208              		.cfi_def_cfa_register 7
 19209 0006 7860     		str	r0, [r7, #4]
 19210 0008 0B46     		mov	r3, r1
 19211 000a 7B80     		strh	r3, [r7, #2]	@ movhi
 726:../StdPeripheralDriver/src/stm32f10x_i2c.c ****   /* Check the parameters */
 727:../StdPeripheralDriver/src/stm32f10x_i2c.c ****   assert_param(IS_I2C_ALL_PERIPH(I2Cx));
 728:../StdPeripheralDriver/src/stm32f10x_i2c.c ****   assert_param(IS_I2C_SMBUS_ALERT(I2C_SMBusAlert));
 729:../StdPeripheralDriver/src/stm32f10x_i2c.c ****   if (I2C_SMBusAlert == I2C_SMBusAlert_Low)
 19212              		.loc 1 729 0
 19213 000c 7B88     		ldrh	r3, [r7, #2]
 19214 000e B3F5005F 		cmp	r3, #8192
 19215 0012 08D1     		bne	.L57
 730:../StdPeripheralDriver/src/stm32f10x_i2c.c ****   {
 731:../StdPeripheralDriver/src/stm32f10x_i2c.c ****     /* Drive the SMBusAlert pin Low */
 732:../StdPeripheralDriver/src/stm32f10x_i2c.c ****     I2Cx->CR1 |= I2C_SMBusAlert_Low;
 19216              		.loc 1 732 0
 19217 0014 7B68     		ldr	r3, [r7, #4]
 19218 0016 1B88     		ldrh	r3, [r3, #0]	@ movhi
 19219 0018 9BB2     		uxth	r3, r3
 19220 001a 43F40053 		orr	r3, r3, #8192
 19221 001e 9AB2     		uxth	r2, r3
 19222 0020 7B68     		ldr	r3, [r7, #4]
 19223 0022 1A80     		strh	r2, [r3, #0]	@ movhi
 19224 0024 07E0     		b	.L56
 19225              	.L57:
 733:../StdPeripheralDriver/src/stm32f10x_i2c.c ****   }
 734:../StdPeripheralDriver/src/stm32f10x_i2c.c ****   else
 735:../StdPeripheralDriver/src/stm32f10x_i2c.c ****   {
 736:../StdPeripheralDriver/src/stm32f10x_i2c.c ****     /* Drive the SMBusAlert pin High  */
 737:../StdPeripheralDriver/src/stm32f10x_i2c.c ****     I2Cx->CR1 &= I2C_SMBusAlert_High;
 19226              		.loc 1 737 0
 19227 0026 7B68     		ldr	r3, [r7, #4]
 19228 0028 1B88     		ldrh	r3, [r3, #0]	@ movhi
 19229 002a 9BB2     		uxth	r3, r3
 19230 002c 23F40053 		bic	r3, r3, #8192
 19231 0030 9AB2     		uxth	r2, r3
 19232 0032 7B68     		ldr	r3, [r7, #4]
 19233 0034 1A80     		strh	r2, [r3, #0]	@ movhi
 19234              	.L56:
 738:../StdPeripheralDriver/src/stm32f10x_i2c.c ****   }
 739:../StdPeripheralDriver/src/stm32f10x_i2c.c **** }
 19235              		.loc 1 739 0
 19236 0036 07F10C07 		add	r7, r7, #12
 19237 003a BD46     		mov	sp, r7
 19238 003c 80BC     		pop	{r7}
 19239 003e 7047     		bx	lr
 19240              		.cfi_endproc
 19241              	.LFE48:
 19243              		.section	.text.I2C_TransmitPEC,"ax",%progbits
 19244              		.align	2
 19245              		.global	I2C_TransmitPEC
 19246              		.thumb
 19247              		.thumb_func
 19249              	I2C_TransmitPEC:
 19250              	.LFB49:
 740:../StdPeripheralDriver/src/stm32f10x_i2c.c **** 
 741:../StdPeripheralDriver/src/stm32f10x_i2c.c **** /**
 742:../StdPeripheralDriver/src/stm32f10x_i2c.c ****   * @brief  Enables or disables the specified I2C PEC transfer.
 743:../StdPeripheralDriver/src/stm32f10x_i2c.c ****   * @param  I2Cx: where x can be 1 or 2 to select the I2C peripheral.
 744:../StdPeripheralDriver/src/stm32f10x_i2c.c ****   * @param  NewState: new state of the I2C PEC transmission.
 745:../StdPeripheralDriver/src/stm32f10x_i2c.c ****   *   This parameter can be: ENABLE or DISABLE.
 746:../StdPeripheralDriver/src/stm32f10x_i2c.c ****   * @retval None
 747:../StdPeripheralDriver/src/stm32f10x_i2c.c ****   */
 748:../StdPeripheralDriver/src/stm32f10x_i2c.c **** void I2C_TransmitPEC(I2C_TypeDef* I2Cx, FunctionalState NewState)
 749:../StdPeripheralDriver/src/stm32f10x_i2c.c **** {
 19251              		.loc 1 749 0
 19252              		.cfi_startproc
 19253              		@ args = 0, pretend = 0, frame = 8
 19254              		@ frame_needed = 1, uses_anonymous_args = 0
 19255              		@ link register save eliminated.
 19256 0000 80B4     		push	{r7}
 19257              	.LCFI60:
 19258              		.cfi_def_cfa_offset 4
 19259 0002 83B0     		sub	sp, sp, #12
 19260              	.LCFI61:
 19261              		.cfi_def_cfa_offset 16
 19262 0004 00AF     		add	r7, sp, #0
 19263              		.cfi_offset 7, -4
 19264              	.LCFI62:
 19265              		.cfi_def_cfa_register 7
 19266 0006 7860     		str	r0, [r7, #4]
 19267 0008 0B46     		mov	r3, r1
 19268 000a FB70     		strb	r3, [r7, #3]
 750:../StdPeripheralDriver/src/stm32f10x_i2c.c ****   /* Check the parameters */
 751:../StdPeripheralDriver/src/stm32f10x_i2c.c ****   assert_param(IS_I2C_ALL_PERIPH(I2Cx));
 752:../StdPeripheralDriver/src/stm32f10x_i2c.c ****   assert_param(IS_FUNCTIONAL_STATE(NewState));
 753:../StdPeripheralDriver/src/stm32f10x_i2c.c ****   if (NewState != DISABLE)
 19269              		.loc 1 753 0
 19270 000c FB78     		ldrb	r3, [r7, #3]	@ zero_extendqisi2
 19271 000e 002B     		cmp	r3, #0
 19272 0010 08D0     		beq	.L60
 754:../StdPeripheralDriver/src/stm32f10x_i2c.c ****   {
 755:../StdPeripheralDriver/src/stm32f10x_i2c.c ****     /* Enable the selected I2C PEC transmission */
 756:../StdPeripheralDriver/src/stm32f10x_i2c.c ****     I2Cx->CR1 |= CR1_PEC_Set;
 19273              		.loc 1 756 0
 19274 0012 7B68     		ldr	r3, [r7, #4]
 19275 0014 1B88     		ldrh	r3, [r3, #0]	@ movhi
 19276 0016 9BB2     		uxth	r3, r3
 19277 0018 43F48053 		orr	r3, r3, #4096
 19278 001c 9AB2     		uxth	r2, r3
 19279 001e 7B68     		ldr	r3, [r7, #4]
 19280 0020 1A80     		strh	r2, [r3, #0]	@ movhi
 19281 0022 07E0     		b	.L59
 19282              	.L60:
 757:../StdPeripheralDriver/src/stm32f10x_i2c.c ****   }
 758:../StdPeripheralDriver/src/stm32f10x_i2c.c ****   else
 759:../StdPeripheralDriver/src/stm32f10x_i2c.c ****   {
 760:../StdPeripheralDriver/src/stm32f10x_i2c.c ****     /* Disable the selected I2C PEC transmission */
 761:../StdPeripheralDriver/src/stm32f10x_i2c.c ****     I2Cx->CR1 &= CR1_PEC_Reset;
 19283              		.loc 1 761 0
 19284 0024 7B68     		ldr	r3, [r7, #4]
 19285 0026 1B88     		ldrh	r3, [r3, #0]	@ movhi
 19286 0028 9BB2     		uxth	r3, r3
 19287 002a 23F48053 		bic	r3, r3, #4096
 19288 002e 9AB2     		uxth	r2, r3
 19289 0030 7B68     		ldr	r3, [r7, #4]
 19290 0032 1A80     		strh	r2, [r3, #0]	@ movhi
 19291              	.L59:
 762:../StdPeripheralDriver/src/stm32f10x_i2c.c ****   }
 763:../StdPeripheralDriver/src/stm32f10x_i2c.c **** }
 19292              		.loc 1 763 0
 19293 0034 07F10C07 		add	r7, r7, #12
 19294 0038 BD46     		mov	sp, r7
 19295 003a 80BC     		pop	{r7}
 19296 003c 7047     		bx	lr
 19297              		.cfi_endproc
 19298              	.LFE49:
 19300 003e 00BF     		.section	.text.I2C_PECPositionConfig,"ax",%progbits
 19301              		.align	2
 19302              		.global	I2C_PECPositionConfig
 19303              		.thumb
 19304              		.thumb_func
 19306              	I2C_PECPositionConfig:
 19307              	.LFB50:
 764:../StdPeripheralDriver/src/stm32f10x_i2c.c **** 
 765:../StdPeripheralDriver/src/stm32f10x_i2c.c **** /**
 766:../StdPeripheralDriver/src/stm32f10x_i2c.c ****   * @brief  Selects the specified I2C PEC position.
 767:../StdPeripheralDriver/src/stm32f10x_i2c.c ****   * @param  I2Cx: where x can be 1 or 2 to select the I2C peripheral.
 768:../StdPeripheralDriver/src/stm32f10x_i2c.c ****   * @param  I2C_PECPosition: specifies the PEC position. 
 769:../StdPeripheralDriver/src/stm32f10x_i2c.c ****   *   This parameter can be one of the following values:
 770:../StdPeripheralDriver/src/stm32f10x_i2c.c ****   *     @arg I2C_PECPosition_Next: indicates that the next byte is PEC
 771:../StdPeripheralDriver/src/stm32f10x_i2c.c ****   *     @arg I2C_PECPosition_Current: indicates that current byte is PEC
 772:../StdPeripheralDriver/src/stm32f10x_i2c.c ****   *       
 773:../StdPeripheralDriver/src/stm32f10x_i2c.c ****   * @note    This function configures the same bit (POS) as I2C_NACKPositionConfig()
 774:../StdPeripheralDriver/src/stm32f10x_i2c.c ****   *          but is intended to be used in SMBUS mode while I2C_NACKPositionConfig() 
 775:../StdPeripheralDriver/src/stm32f10x_i2c.c ****   *          is intended to used in I2C mode.
 776:../StdPeripheralDriver/src/stm32f10x_i2c.c ****   *               
 777:../StdPeripheralDriver/src/stm32f10x_i2c.c ****   * @retval None
 778:../StdPeripheralDriver/src/stm32f10x_i2c.c ****   */
 779:../StdPeripheralDriver/src/stm32f10x_i2c.c **** void I2C_PECPositionConfig(I2C_TypeDef* I2Cx, uint16_t I2C_PECPosition)
 780:../StdPeripheralDriver/src/stm32f10x_i2c.c **** {
 19308              		.loc 1 780 0
 19309              		.cfi_startproc
 19310              		@ args = 0, pretend = 0, frame = 8
 19311              		@ frame_needed = 1, uses_anonymous_args = 0
 19312              		@ link register save eliminated.
 19313 0000 80B4     		push	{r7}
 19314              	.LCFI63:
 19315              		.cfi_def_cfa_offset 4
 19316 0002 83B0     		sub	sp, sp, #12
 19317              	.LCFI64:
 19318              		.cfi_def_cfa_offset 16
 19319 0004 00AF     		add	r7, sp, #0
 19320              		.cfi_offset 7, -4
 19321              	.LCFI65:
 19322              		.cfi_def_cfa_register 7
 19323 0006 7860     		str	r0, [r7, #4]
 19324 0008 0B46     		mov	r3, r1
 19325 000a 7B80     		strh	r3, [r7, #2]	@ movhi
 781:../StdPeripheralDriver/src/stm32f10x_i2c.c ****   /* Check the parameters */
 782:../StdPeripheralDriver/src/stm32f10x_i2c.c ****   assert_param(IS_I2C_ALL_PERIPH(I2Cx));
 783:../StdPeripheralDriver/src/stm32f10x_i2c.c ****   assert_param(IS_I2C_PEC_POSITION(I2C_PECPosition));
 784:../StdPeripheralDriver/src/stm32f10x_i2c.c ****   if (I2C_PECPosition == I2C_PECPosition_Next)
 19326              		.loc 1 784 0
 19327 000c 7B88     		ldrh	r3, [r7, #2]
 19328 000e B3F5006F 		cmp	r3, #2048
 19329 0012 08D1     		bne	.L63
 785:../StdPeripheralDriver/src/stm32f10x_i2c.c ****   {
 786:../StdPeripheralDriver/src/stm32f10x_i2c.c ****     /* Next byte in shift register is PEC */
 787:../StdPeripheralDriver/src/stm32f10x_i2c.c ****     I2Cx->CR1 |= I2C_PECPosition_Next;
 19330              		.loc 1 787 0
 19331 0014 7B68     		ldr	r3, [r7, #4]
 19332 0016 1B88     		ldrh	r3, [r3, #0]	@ movhi
 19333 0018 9BB2     		uxth	r3, r3
 19334 001a 43F40063 		orr	r3, r3, #2048
 19335 001e 9AB2     		uxth	r2, r3
 19336 0020 7B68     		ldr	r3, [r7, #4]
 19337 0022 1A80     		strh	r2, [r3, #0]	@ movhi
 19338 0024 07E0     		b	.L62
 19339              	.L63:
 788:../StdPeripheralDriver/src/stm32f10x_i2c.c ****   }
 789:../StdPeripheralDriver/src/stm32f10x_i2c.c ****   else
 790:../StdPeripheralDriver/src/stm32f10x_i2c.c ****   {
 791:../StdPeripheralDriver/src/stm32f10x_i2c.c ****     /* Current byte in shift register is PEC */
 792:../StdPeripheralDriver/src/stm32f10x_i2c.c ****     I2Cx->CR1 &= I2C_PECPosition_Current;
 19340              		.loc 1 792 0
 19341 0026 7B68     		ldr	r3, [r7, #4]
 19342 0028 1B88     		ldrh	r3, [r3, #0]	@ movhi
 19343 002a 9BB2     		uxth	r3, r3
 19344 002c 23F40063 		bic	r3, r3, #2048
 19345 0030 9AB2     		uxth	r2, r3
 19346 0032 7B68     		ldr	r3, [r7, #4]
 19347 0034 1A80     		strh	r2, [r3, #0]	@ movhi
 19348              	.L62:
 793:../StdPeripheralDriver/src/stm32f10x_i2c.c ****   }
 794:../StdPeripheralDriver/src/stm32f10x_i2c.c **** }
 19349              		.loc 1 794 0
 19350 0036 07F10C07 		add	r7, r7, #12
 19351 003a BD46     		mov	sp, r7
 19352 003c 80BC     		pop	{r7}
 19353 003e 7047     		bx	lr
 19354              		.cfi_endproc
 19355              	.LFE50:
 19357              		.section	.text.I2C_CalculatePEC,"ax",%progbits
 19358              		.align	2
 19359              		.global	I2C_CalculatePEC
 19360              		.thumb
 19361              		.thumb_func
 19363              	I2C_CalculatePEC:
 19364              	.LFB51:
 795:../StdPeripheralDriver/src/stm32f10x_i2c.c **** 
 796:../StdPeripheralDriver/src/stm32f10x_i2c.c **** /**
 797:../StdPeripheralDriver/src/stm32f10x_i2c.c ****   * @brief  Enables or disables the PEC value calculation of the transferred bytes.
 798:../StdPeripheralDriver/src/stm32f10x_i2c.c ****   * @param  I2Cx: where x can be 1 or 2 to select the I2C peripheral.
 799:../StdPeripheralDriver/src/stm32f10x_i2c.c ****   * @param  NewState: new state of the I2Cx PEC value calculation.
 800:../StdPeripheralDriver/src/stm32f10x_i2c.c ****   *   This parameter can be: ENABLE or DISABLE.
 801:../StdPeripheralDriver/src/stm32f10x_i2c.c ****   * @retval None
 802:../StdPeripheralDriver/src/stm32f10x_i2c.c ****   */
 803:../StdPeripheralDriver/src/stm32f10x_i2c.c **** void I2C_CalculatePEC(I2C_TypeDef* I2Cx, FunctionalState NewState)
 804:../StdPeripheralDriver/src/stm32f10x_i2c.c **** {
 19365              		.loc 1 804 0
 19366              		.cfi_startproc
 19367              		@ args = 0, pretend = 0, frame = 8
 19368              		@ frame_needed = 1, uses_anonymous_args = 0
 19369              		@ link register save eliminated.
 19370 0000 80B4     		push	{r7}
 19371              	.LCFI66:
 19372              		.cfi_def_cfa_offset 4
 19373 0002 83B0     		sub	sp, sp, #12
 19374              	.LCFI67:
 19375              		.cfi_def_cfa_offset 16
 19376 0004 00AF     		add	r7, sp, #0
 19377              		.cfi_offset 7, -4
 19378              	.LCFI68:
 19379              		.cfi_def_cfa_register 7
 19380 0006 7860     		str	r0, [r7, #4]
 19381 0008 0B46     		mov	r3, r1
 19382 000a FB70     		strb	r3, [r7, #3]
 805:../StdPeripheralDriver/src/stm32f10x_i2c.c ****   /* Check the parameters */
 806:../StdPeripheralDriver/src/stm32f10x_i2c.c ****   assert_param(IS_I2C_ALL_PERIPH(I2Cx));
 807:../StdPeripheralDriver/src/stm32f10x_i2c.c ****   assert_param(IS_FUNCTIONAL_STATE(NewState));
 808:../StdPeripheralDriver/src/stm32f10x_i2c.c ****   if (NewState != DISABLE)
 19383              		.loc 1 808 0
 19384 000c FB78     		ldrb	r3, [r7, #3]	@ zero_extendqisi2
 19385 000e 002B     		cmp	r3, #0
 19386 0010 08D0     		beq	.L66
 809:../StdPeripheralDriver/src/stm32f10x_i2c.c ****   {
 810:../StdPeripheralDriver/src/stm32f10x_i2c.c ****     /* Enable the selected I2C PEC calculation */
 811:../StdPeripheralDriver/src/stm32f10x_i2c.c ****     I2Cx->CR1 |= CR1_ENPEC_Set;
 19387              		.loc 1 811 0
 19388 0012 7B68     		ldr	r3, [r7, #4]
 19389 0014 1B88     		ldrh	r3, [r3, #0]	@ movhi
 19390 0016 9BB2     		uxth	r3, r3
 19391 0018 43F02003 		orr	r3, r3, #32
 19392 001c 9AB2     		uxth	r2, r3
 19393 001e 7B68     		ldr	r3, [r7, #4]
 19394 0020 1A80     		strh	r2, [r3, #0]	@ movhi
 19395 0022 07E0     		b	.L65
 19396              	.L66:
 812:../StdPeripheralDriver/src/stm32f10x_i2c.c ****   }
 813:../StdPeripheralDriver/src/stm32f10x_i2c.c ****   else
 814:../StdPeripheralDriver/src/stm32f10x_i2c.c ****   {
 815:../StdPeripheralDriver/src/stm32f10x_i2c.c ****     /* Disable the selected I2C PEC calculation */
 816:../StdPeripheralDriver/src/stm32f10x_i2c.c ****     I2Cx->CR1 &= CR1_ENPEC_Reset;
 19397              		.loc 1 816 0
 19398 0024 7B68     		ldr	r3, [r7, #4]
 19399 0026 1B88     		ldrh	r3, [r3, #0]	@ movhi
 19400 0028 9BB2     		uxth	r3, r3
 19401 002a 23F02003 		bic	r3, r3, #32
 19402 002e 9AB2     		uxth	r2, r3
 19403 0030 7B68     		ldr	r3, [r7, #4]
 19404 0032 1A80     		strh	r2, [r3, #0]	@ movhi
 19405              	.L65:
 817:../StdPeripheralDriver/src/stm32f10x_i2c.c ****   }
 818:../StdPeripheralDriver/src/stm32f10x_i2c.c **** }
 19406              		.loc 1 818 0
 19407 0034 07F10C07 		add	r7, r7, #12
 19408 0038 BD46     		mov	sp, r7
 19409 003a 80BC     		pop	{r7}
 19410 003c 7047     		bx	lr
 19411              		.cfi_endproc
 19412              	.LFE51:
 19414 003e 00BF     		.section	.text.I2C_GetPEC,"ax",%progbits
 19415              		.align	2
 19416              		.global	I2C_GetPEC
 19417              		.thumb
 19418              		.thumb_func
 19420              	I2C_GetPEC:
 19421              	.LFB52:
 819:../StdPeripheralDriver/src/stm32f10x_i2c.c **** 
 820:../StdPeripheralDriver/src/stm32f10x_i2c.c **** /**
 821:../StdPeripheralDriver/src/stm32f10x_i2c.c ****   * @brief  Returns the PEC value for the specified I2C.
 822:../StdPeripheralDriver/src/stm32f10x_i2c.c ****   * @param  I2Cx: where x can be 1 or 2 to select the I2C peripheral.
 823:../StdPeripheralDriver/src/stm32f10x_i2c.c ****   * @retval The PEC value.
 824:../StdPeripheralDriver/src/stm32f10x_i2c.c ****   */
 825:../StdPeripheralDriver/src/stm32f10x_i2c.c **** uint8_t I2C_GetPEC(I2C_TypeDef* I2Cx)
 826:../StdPeripheralDriver/src/stm32f10x_i2c.c **** {
 19422              		.loc 1 826 0
 19423              		.cfi_startproc
 19424              		@ args = 0, pretend = 0, frame = 8
 19425              		@ frame_needed = 1, uses_anonymous_args = 0
 19426              		@ link register save eliminated.
 19427 0000 80B4     		push	{r7}
 19428              	.LCFI69:
 19429              		.cfi_def_cfa_offset 4
 19430 0002 83B0     		sub	sp, sp, #12
 19431              	.LCFI70:
 19432              		.cfi_def_cfa_offset 16
 19433 0004 00AF     		add	r7, sp, #0
 19434              		.cfi_offset 7, -4
 19435              	.LCFI71:
 19436              		.cfi_def_cfa_register 7
 19437 0006 7860     		str	r0, [r7, #4]
 827:../StdPeripheralDriver/src/stm32f10x_i2c.c ****   /* Check the parameters */
 828:../StdPeripheralDriver/src/stm32f10x_i2c.c ****   assert_param(IS_I2C_ALL_PERIPH(I2Cx));
 829:../StdPeripheralDriver/src/stm32f10x_i2c.c ****   /* Return the selected I2C PEC value */
 830:../StdPeripheralDriver/src/stm32f10x_i2c.c ****   return ((I2Cx->SR2) >> 8);
 19438              		.loc 1 830 0
 19439 0008 7B68     		ldr	r3, [r7, #4]
 19440 000a 1B8B     		ldrh	r3, [r3, #24]	@ movhi
 19441 000c 9BB2     		uxth	r3, r3
 19442 000e 4FEA1323 		lsr	r3, r3, #8
 19443 0012 9BB2     		uxth	r3, r3
 19444 0014 DBB2     		uxtb	r3, r3
 831:../StdPeripheralDriver/src/stm32f10x_i2c.c **** }
 19445              		.loc 1 831 0
 19446 0016 1846     		mov	r0, r3
 19447 0018 07F10C07 		add	r7, r7, #12
 19448 001c BD46     		mov	sp, r7
 19449 001e 80BC     		pop	{r7}
 19450 0020 7047     		bx	lr
 19451              		.cfi_endproc
 19452              	.LFE52:
 19454 0022 00BF     		.section	.text.I2C_ARPCmd,"ax",%progbits
 19455              		.align	2
 19456              		.global	I2C_ARPCmd
 19457              		.thumb
 19458              		.thumb_func
 19460              	I2C_ARPCmd:
 19461              	.LFB53:
 832:../StdPeripheralDriver/src/stm32f10x_i2c.c **** 
 833:../StdPeripheralDriver/src/stm32f10x_i2c.c **** /**
 834:../StdPeripheralDriver/src/stm32f10x_i2c.c ****   * @brief  Enables or disables the specified I2C ARP.
 835:../StdPeripheralDriver/src/stm32f10x_i2c.c ****   * @param  I2Cx: where x can be 1 or 2 to select the I2C peripheral.
 836:../StdPeripheralDriver/src/stm32f10x_i2c.c ****   * @param  NewState: new state of the I2Cx ARP. 
 837:../StdPeripheralDriver/src/stm32f10x_i2c.c ****   *   This parameter can be: ENABLE or DISABLE.
 838:../StdPeripheralDriver/src/stm32f10x_i2c.c ****   * @retval None
 839:../StdPeripheralDriver/src/stm32f10x_i2c.c ****   */
 840:../StdPeripheralDriver/src/stm32f10x_i2c.c **** void I2C_ARPCmd(I2C_TypeDef* I2Cx, FunctionalState NewState)
 841:../StdPeripheralDriver/src/stm32f10x_i2c.c **** {
 19462              		.loc 1 841 0
 19463              		.cfi_startproc
 19464              		@ args = 0, pretend = 0, frame = 8
 19465              		@ frame_needed = 1, uses_anonymous_args = 0
 19466              		@ link register save eliminated.
 19467 0000 80B4     		push	{r7}
 19468              	.LCFI72:
 19469              		.cfi_def_cfa_offset 4
 19470 0002 83B0     		sub	sp, sp, #12
 19471              	.LCFI73:
 19472              		.cfi_def_cfa_offset 16
 19473 0004 00AF     		add	r7, sp, #0
 19474              		.cfi_offset 7, -4
 19475              	.LCFI74:
 19476              		.cfi_def_cfa_register 7
 19477 0006 7860     		str	r0, [r7, #4]
 19478 0008 0B46     		mov	r3, r1
 19479 000a FB70     		strb	r3, [r7, #3]
 842:../StdPeripheralDriver/src/stm32f10x_i2c.c ****   /* Check the parameters */
 843:../StdPeripheralDriver/src/stm32f10x_i2c.c ****   assert_param(IS_I2C_ALL_PERIPH(I2Cx));
 844:../StdPeripheralDriver/src/stm32f10x_i2c.c ****   assert_param(IS_FUNCTIONAL_STATE(NewState));
 845:../StdPeripheralDriver/src/stm32f10x_i2c.c ****   if (NewState != DISABLE)
 19480              		.loc 1 845 0
 19481 000c FB78     		ldrb	r3, [r7, #3]	@ zero_extendqisi2
 19482 000e 002B     		cmp	r3, #0
 19483 0010 08D0     		beq	.L70
 846:../StdPeripheralDriver/src/stm32f10x_i2c.c ****   {
 847:../StdPeripheralDriver/src/stm32f10x_i2c.c ****     /* Enable the selected I2C ARP */
 848:../StdPeripheralDriver/src/stm32f10x_i2c.c ****     I2Cx->CR1 |= CR1_ENARP_Set;
 19484              		.loc 1 848 0
 19485 0012 7B68     		ldr	r3, [r7, #4]
 19486 0014 1B88     		ldrh	r3, [r3, #0]	@ movhi
 19487 0016 9BB2     		uxth	r3, r3
 19488 0018 43F01003 		orr	r3, r3, #16
 19489 001c 9AB2     		uxth	r2, r3
 19490 001e 7B68     		ldr	r3, [r7, #4]
 19491 0020 1A80     		strh	r2, [r3, #0]	@ movhi
 19492 0022 07E0     		b	.L69
 19493              	.L70:
 849:../StdPeripheralDriver/src/stm32f10x_i2c.c ****   }
 850:../StdPeripheralDriver/src/stm32f10x_i2c.c ****   else
 851:../StdPeripheralDriver/src/stm32f10x_i2c.c ****   {
 852:../StdPeripheralDriver/src/stm32f10x_i2c.c ****     /* Disable the selected I2C ARP */
 853:../StdPeripheralDriver/src/stm32f10x_i2c.c ****     I2Cx->CR1 &= CR1_ENARP_Reset;
 19494              		.loc 1 853 0
 19495 0024 7B68     		ldr	r3, [r7, #4]
 19496 0026 1B88     		ldrh	r3, [r3, #0]	@ movhi
 19497 0028 9BB2     		uxth	r3, r3
 19498 002a 23F01003 		bic	r3, r3, #16
 19499 002e 9AB2     		uxth	r2, r3
 19500 0030 7B68     		ldr	r3, [r7, #4]
 19501 0032 1A80     		strh	r2, [r3, #0]	@ movhi
 19502              	.L69:
 854:../StdPeripheralDriver/src/stm32f10x_i2c.c ****   }
 855:../StdPeripheralDriver/src/stm32f10x_i2c.c **** }
 19503              		.loc 1 855 0
 19504 0034 07F10C07 		add	r7, r7, #12
 19505 0038 BD46     		mov	sp, r7
 19506 003a 80BC     		pop	{r7}
 19507 003c 7047     		bx	lr
 19508              		.cfi_endproc
 19509              	.LFE53:
 19511 003e 00BF     		.section	.text.I2C_StretchClockCmd,"ax",%progbits
 19512              		.align	2
 19513              		.global	I2C_StretchClockCmd
 19514              		.thumb
 19515              		.thumb_func
 19517              	I2C_StretchClockCmd:
 19518              	.LFB54:
 856:../StdPeripheralDriver/src/stm32f10x_i2c.c **** 
 857:../StdPeripheralDriver/src/stm32f10x_i2c.c **** /**
 858:../StdPeripheralDriver/src/stm32f10x_i2c.c ****   * @brief  Enables or disables the specified I2C Clock stretching.
 859:../StdPeripheralDriver/src/stm32f10x_i2c.c ****   * @param  I2Cx: where x can be 1 or 2 to select the I2C peripheral.
 860:../StdPeripheralDriver/src/stm32f10x_i2c.c ****   * @param  NewState: new state of the I2Cx Clock stretching.
 861:../StdPeripheralDriver/src/stm32f10x_i2c.c ****   *   This parameter can be: ENABLE or DISABLE.
 862:../StdPeripheralDriver/src/stm32f10x_i2c.c ****   * @retval None
 863:../StdPeripheralDriver/src/stm32f10x_i2c.c ****   */
 864:../StdPeripheralDriver/src/stm32f10x_i2c.c **** void I2C_StretchClockCmd(I2C_TypeDef* I2Cx, FunctionalState NewState)
 865:../StdPeripheralDriver/src/stm32f10x_i2c.c **** {
 19519              		.loc 1 865 0
 19520              		.cfi_startproc
 19521              		@ args = 0, pretend = 0, frame = 8
 19522              		@ frame_needed = 1, uses_anonymous_args = 0
 19523              		@ link register save eliminated.
 19524 0000 80B4     		push	{r7}
 19525              	.LCFI75:
 19526              		.cfi_def_cfa_offset 4
 19527 0002 83B0     		sub	sp, sp, #12
 19528              	.LCFI76:
 19529              		.cfi_def_cfa_offset 16
 19530 0004 00AF     		add	r7, sp, #0
 19531              		.cfi_offset 7, -4
 19532              	.LCFI77:
 19533              		.cfi_def_cfa_register 7
 19534 0006 7860     		str	r0, [r7, #4]
 19535 0008 0B46     		mov	r3, r1
 19536 000a FB70     		strb	r3, [r7, #3]
 866:../StdPeripheralDriver/src/stm32f10x_i2c.c ****   /* Check the parameters */
 867:../StdPeripheralDriver/src/stm32f10x_i2c.c ****   assert_param(IS_I2C_ALL_PERIPH(I2Cx));
 868:../StdPeripheralDriver/src/stm32f10x_i2c.c ****   assert_param(IS_FUNCTIONAL_STATE(NewState));
 869:../StdPeripheralDriver/src/stm32f10x_i2c.c ****   if (NewState == DISABLE)
 19537              		.loc 1 869 0
 19538 000c FB78     		ldrb	r3, [r7, #3]	@ zero_extendqisi2
 19539 000e 002B     		cmp	r3, #0
 19540 0010 08D1     		bne	.L73
 870:../StdPeripheralDriver/src/stm32f10x_i2c.c ****   {
 871:../StdPeripheralDriver/src/stm32f10x_i2c.c ****     /* Enable the selected I2C Clock stretching */
 872:../StdPeripheralDriver/src/stm32f10x_i2c.c ****     I2Cx->CR1 |= CR1_NOSTRETCH_Set;
 19541              		.loc 1 872 0
 19542 0012 7B68     		ldr	r3, [r7, #4]
 19543 0014 1B88     		ldrh	r3, [r3, #0]	@ movhi
 19544 0016 9BB2     		uxth	r3, r3
 19545 0018 43F08003 		orr	r3, r3, #128
 19546 001c 9AB2     		uxth	r2, r3
 19547 001e 7B68     		ldr	r3, [r7, #4]
 19548 0020 1A80     		strh	r2, [r3, #0]	@ movhi
 19549 0022 07E0     		b	.L72
 19550              	.L73:
 873:../StdPeripheralDriver/src/stm32f10x_i2c.c ****   }
 874:../StdPeripheralDriver/src/stm32f10x_i2c.c ****   else
 875:../StdPeripheralDriver/src/stm32f10x_i2c.c ****   {
 876:../StdPeripheralDriver/src/stm32f10x_i2c.c ****     /* Disable the selected I2C Clock stretching */
 877:../StdPeripheralDriver/src/stm32f10x_i2c.c ****     I2Cx->CR1 &= CR1_NOSTRETCH_Reset;
 19551              		.loc 1 877 0
 19552 0024 7B68     		ldr	r3, [r7, #4]
 19553 0026 1B88     		ldrh	r3, [r3, #0]	@ movhi
 19554 0028 9BB2     		uxth	r3, r3
 19555 002a 23F08003 		bic	r3, r3, #128
 19556 002e 9AB2     		uxth	r2, r3
 19557 0030 7B68     		ldr	r3, [r7, #4]
 19558 0032 1A80     		strh	r2, [r3, #0]	@ movhi
 19559              	.L72:
 878:../StdPeripheralDriver/src/stm32f10x_i2c.c ****   }
 879:../StdPeripheralDriver/src/stm32f10x_i2c.c **** }
 19560              		.loc 1 879 0
 19561 0034 07F10C07 		add	r7, r7, #12
 19562 0038 BD46     		mov	sp, r7
 19563 003a 80BC     		pop	{r7}
 19564 003c 7047     		bx	lr
 19565              		.cfi_endproc
 19566              	.LFE54:
 19568 003e 00BF     		.section	.text.I2C_FastModeDutyCycleConfig,"ax",%progbits
 19569              		.align	2
 19570              		.global	I2C_FastModeDutyCycleConfig
 19571              		.thumb
 19572              		.thumb_func
 19574              	I2C_FastModeDutyCycleConfig:
 19575              	.LFB55:
 880:../StdPeripheralDriver/src/stm32f10x_i2c.c **** 
 881:../StdPeripheralDriver/src/stm32f10x_i2c.c **** /**
 882:../StdPeripheralDriver/src/stm32f10x_i2c.c ****   * @brief  Selects the specified I2C fast mode duty cycle.
 883:../StdPeripheralDriver/src/stm32f10x_i2c.c ****   * @param  I2Cx: where x can be 1 or 2 to select the I2C peripheral.
 884:../StdPeripheralDriver/src/stm32f10x_i2c.c ****   * @param  I2C_DutyCycle: specifies the fast mode duty cycle.
 885:../StdPeripheralDriver/src/stm32f10x_i2c.c ****   *   This parameter can be one of the following values:
 886:../StdPeripheralDriver/src/stm32f10x_i2c.c ****   *     @arg I2C_DutyCycle_2: I2C fast mode Tlow/Thigh = 2
 887:../StdPeripheralDriver/src/stm32f10x_i2c.c ****   *     @arg I2C_DutyCycle_16_9: I2C fast mode Tlow/Thigh = 16/9
 888:../StdPeripheralDriver/src/stm32f10x_i2c.c ****   * @retval None
 889:../StdPeripheralDriver/src/stm32f10x_i2c.c ****   */
 890:../StdPeripheralDriver/src/stm32f10x_i2c.c **** void I2C_FastModeDutyCycleConfig(I2C_TypeDef* I2Cx, uint16_t I2C_DutyCycle)
 891:../StdPeripheralDriver/src/stm32f10x_i2c.c **** {
 19576              		.loc 1 891 0
 19577              		.cfi_startproc
 19578              		@ args = 0, pretend = 0, frame = 8
 19579              		@ frame_needed = 1, uses_anonymous_args = 0
 19580              		@ link register save eliminated.
 19581 0000 80B4     		push	{r7}
 19582              	.LCFI78:
 19583              		.cfi_def_cfa_offset 4
 19584 0002 83B0     		sub	sp, sp, #12
 19585              	.LCFI79:
 19586              		.cfi_def_cfa_offset 16
 19587 0004 00AF     		add	r7, sp, #0
 19588              		.cfi_offset 7, -4
 19589              	.LCFI80:
 19590              		.cfi_def_cfa_register 7
 19591 0006 7860     		str	r0, [r7, #4]
 19592 0008 0B46     		mov	r3, r1
 19593 000a 7B80     		strh	r3, [r7, #2]	@ movhi
 892:../StdPeripheralDriver/src/stm32f10x_i2c.c ****   /* Check the parameters */
 893:../StdPeripheralDriver/src/stm32f10x_i2c.c ****   assert_param(IS_I2C_ALL_PERIPH(I2Cx));
 894:../StdPeripheralDriver/src/stm32f10x_i2c.c ****   assert_param(IS_I2C_DUTY_CYCLE(I2C_DutyCycle));
 895:../StdPeripheralDriver/src/stm32f10x_i2c.c ****   if (I2C_DutyCycle != I2C_DutyCycle_16_9)
 19594              		.loc 1 895 0
 19595 000c 7B88     		ldrh	r3, [r7, #2]
 19596 000e B3F5804F 		cmp	r3, #16384
 19597 0012 08D0     		beq	.L76
 896:../StdPeripheralDriver/src/stm32f10x_i2c.c ****   {
 897:../StdPeripheralDriver/src/stm32f10x_i2c.c ****     /* I2C fast mode Tlow/Thigh=2 */
 898:../StdPeripheralDriver/src/stm32f10x_i2c.c ****     I2Cx->CCR &= I2C_DutyCycle_2;
 19598              		.loc 1 898 0
 19599 0014 7B68     		ldr	r3, [r7, #4]
 19600 0016 9B8B     		ldrh	r3, [r3, #28]	@ movhi
 19601 0018 9BB2     		uxth	r3, r3
 19602 001a 23F48043 		bic	r3, r3, #16384
 19603 001e 9AB2     		uxth	r2, r3
 19604 0020 7B68     		ldr	r3, [r7, #4]
 19605 0022 9A83     		strh	r2, [r3, #28]	@ movhi
 19606 0024 07E0     		b	.L75
 19607              	.L76:
 899:../StdPeripheralDriver/src/stm32f10x_i2c.c ****   }
 900:../StdPeripheralDriver/src/stm32f10x_i2c.c ****   else
 901:../StdPeripheralDriver/src/stm32f10x_i2c.c ****   {
 902:../StdPeripheralDriver/src/stm32f10x_i2c.c ****     /* I2C fast mode Tlow/Thigh=16/9 */
 903:../StdPeripheralDriver/src/stm32f10x_i2c.c ****     I2Cx->CCR |= I2C_DutyCycle_16_9;
 19608              		.loc 1 903 0
 19609 0026 7B68     		ldr	r3, [r7, #4]
 19610 0028 9B8B     		ldrh	r3, [r3, #28]	@ movhi
 19611 002a 9BB2     		uxth	r3, r3
 19612 002c 43F48043 		orr	r3, r3, #16384
 19613 0030 9AB2     		uxth	r2, r3
 19614 0032 7B68     		ldr	r3, [r7, #4]
 19615 0034 9A83     		strh	r2, [r3, #28]	@ movhi
 19616              	.L75:
 904:../StdPeripheralDriver/src/stm32f10x_i2c.c ****   }
 905:../StdPeripheralDriver/src/stm32f10x_i2c.c **** }
 19617              		.loc 1 905 0
 19618 0036 07F10C07 		add	r7, r7, #12
 19619 003a BD46     		mov	sp, r7
 19620 003c 80BC     		pop	{r7}
 19621 003e 7047     		bx	lr
 19622              		.cfi_endproc
 19623              	.LFE55:
 19625              		.section	.text.I2C_CheckEvent,"ax",%progbits
 19626              		.align	2
 19627              		.global	I2C_CheckEvent
 19628              		.thumb
 19629              		.thumb_func
 19631              	I2C_CheckEvent:
 19632              	.LFB56:
 906:../StdPeripheralDriver/src/stm32f10x_i2c.c **** 
 907:../StdPeripheralDriver/src/stm32f10x_i2c.c **** 
 908:../StdPeripheralDriver/src/stm32f10x_i2c.c **** 
 909:../StdPeripheralDriver/src/stm32f10x_i2c.c **** /**
 910:../StdPeripheralDriver/src/stm32f10x_i2c.c ****  * @brief
 911:../StdPeripheralDriver/src/stm32f10x_i2c.c ****  ****************************************************************************************
 912:../StdPeripheralDriver/src/stm32f10x_i2c.c ****  *
 913:../StdPeripheralDriver/src/stm32f10x_i2c.c ****  *                         I2C State Monitoring Functions
 914:../StdPeripheralDriver/src/stm32f10x_i2c.c ****  *                       
 915:../StdPeripheralDriver/src/stm32f10x_i2c.c ****  ****************************************************************************************   
 916:../StdPeripheralDriver/src/stm32f10x_i2c.c ****  * This I2C driver provides three different ways for I2C state monitoring
 917:../StdPeripheralDriver/src/stm32f10x_i2c.c ****  *  depending on the application requirements and constraints:
 918:../StdPeripheralDriver/src/stm32f10x_i2c.c ****  *        
 919:../StdPeripheralDriver/src/stm32f10x_i2c.c ****  *  
 920:../StdPeripheralDriver/src/stm32f10x_i2c.c ****  * 1) Basic state monitoring:
 921:../StdPeripheralDriver/src/stm32f10x_i2c.c ****  *    Using I2C_CheckEvent() function:
 922:../StdPeripheralDriver/src/stm32f10x_i2c.c ****  *    It compares the status registers (SR1 and SR2) content to a given event
 923:../StdPeripheralDriver/src/stm32f10x_i2c.c ****  *    (can be the combination of one or more flags).
 924:../StdPeripheralDriver/src/stm32f10x_i2c.c ****  *    It returns SUCCESS if the current status includes the given flags 
 925:../StdPeripheralDriver/src/stm32f10x_i2c.c ****  *    and returns ERROR if one or more flags are missing in the current status.
 926:../StdPeripheralDriver/src/stm32f10x_i2c.c ****  *    - When to use:
 927:../StdPeripheralDriver/src/stm32f10x_i2c.c ****  *      - This function is suitable for most applications as well as for startup 
 928:../StdPeripheralDriver/src/stm32f10x_i2c.c ****  *      activity since the events are fully described in the product reference manual 
 929:../StdPeripheralDriver/src/stm32f10x_i2c.c ****  *      (RM0008).
 930:../StdPeripheralDriver/src/stm32f10x_i2c.c ****  *      - It is also suitable for users who need to define their own events.
 931:../StdPeripheralDriver/src/stm32f10x_i2c.c ****  *    - Limitations:
 932:../StdPeripheralDriver/src/stm32f10x_i2c.c ****  *      - If an error occurs (ie. error flags are set besides to the monitored flags),
 933:../StdPeripheralDriver/src/stm32f10x_i2c.c ****  *        the I2C_CheckEvent() function may return SUCCESS despite the communication
 934:../StdPeripheralDriver/src/stm32f10x_i2c.c ****  *        hold or corrupted real state. 
 935:../StdPeripheralDriver/src/stm32f10x_i2c.c ****  *        In this case, it is advised to use error interrupts to monitor the error
 936:../StdPeripheralDriver/src/stm32f10x_i2c.c ****  *        events and handle them in the interrupt IRQ handler.
 937:../StdPeripheralDriver/src/stm32f10x_i2c.c ****  *        
 938:../StdPeripheralDriver/src/stm32f10x_i2c.c ****  *        @note 
 939:../StdPeripheralDriver/src/stm32f10x_i2c.c ****  *        For error management, it is advised to use the following functions:
 940:../StdPeripheralDriver/src/stm32f10x_i2c.c ****  *          - I2C_ITConfig() to configure and enable the error interrupts (I2C_IT_ERR).
 941:../StdPeripheralDriver/src/stm32f10x_i2c.c ****  *          - I2Cx_ER_IRQHandler() which is called when the error interrupt occurs.
 942:../StdPeripheralDriver/src/stm32f10x_i2c.c ****  *            Where x is the peripheral instance (I2C1, I2C2 ...)
 943:../StdPeripheralDriver/src/stm32f10x_i2c.c ****  *          - I2C_GetFlagStatus() or I2C_GetITStatus() to be called into I2Cx_ER_IRQHandler() 
 944:../StdPeripheralDriver/src/stm32f10x_i2c.c ****  *            in order to determine which error occured.
 945:../StdPeripheralDriver/src/stm32f10x_i2c.c ****  *          - I2C_ClearFlag() or I2C_ClearITPendingBit() and/or I2C_SoftwareResetCmd()
 946:../StdPeripheralDriver/src/stm32f10x_i2c.c ****  *            and/or I2C_GenerateStop() in order to clear the error flag and source,
 947:../StdPeripheralDriver/src/stm32f10x_i2c.c ****  *            and return to correct communication status.
 948:../StdPeripheralDriver/src/stm32f10x_i2c.c ****  *            
 949:../StdPeripheralDriver/src/stm32f10x_i2c.c ****  *
 950:../StdPeripheralDriver/src/stm32f10x_i2c.c ****  *  2) Advanced state monitoring:
 951:../StdPeripheralDriver/src/stm32f10x_i2c.c ****  *     Using the function I2C_GetLastEvent() which returns the image of both status 
 952:../StdPeripheralDriver/src/stm32f10x_i2c.c ****  *     registers in a single word (uint32_t) (Status Register 2 value is shifted left 
 953:../StdPeripheralDriver/src/stm32f10x_i2c.c ****  *     by 16 bits and concatenated to Status Register 1).
 954:../StdPeripheralDriver/src/stm32f10x_i2c.c ****  *     - When to use:
 955:../StdPeripheralDriver/src/stm32f10x_i2c.c ****  *       - This function is suitable for the same applications above but it allows to
 956:../StdPeripheralDriver/src/stm32f10x_i2c.c ****  *         overcome the mentioned limitation of I2C_GetFlagStatus() function.
 957:../StdPeripheralDriver/src/stm32f10x_i2c.c ****  *         The returned value could be compared to events already defined in the 
 958:../StdPeripheralDriver/src/stm32f10x_i2c.c ****  *         library (stm32f10x_i2c.h) or to custom values defined by user.
 959:../StdPeripheralDriver/src/stm32f10x_i2c.c ****  *       - This function is suitable when multiple flags are monitored at the same time.
 960:../StdPeripheralDriver/src/stm32f10x_i2c.c ****  *       - At the opposite of I2C_CheckEvent() function, this function allows user to
 961:../StdPeripheralDriver/src/stm32f10x_i2c.c ****  *         choose when an event is accepted (when all events flags are set and no 
 962:../StdPeripheralDriver/src/stm32f10x_i2c.c ****  *         other flags are set or just when the needed flags are set like 
 963:../StdPeripheralDriver/src/stm32f10x_i2c.c ****  *         I2C_CheckEvent() function).
 964:../StdPeripheralDriver/src/stm32f10x_i2c.c ****  *     - Limitations:
 965:../StdPeripheralDriver/src/stm32f10x_i2c.c ****  *       - User may need to define his own events.
 966:../StdPeripheralDriver/src/stm32f10x_i2c.c ****  *       - Same remark concerning the error management is applicable for this 
 967:../StdPeripheralDriver/src/stm32f10x_i2c.c ****  *         function if user decides to check only regular communication flags (and 
 968:../StdPeripheralDriver/src/stm32f10x_i2c.c ****  *         ignores error flags).
 969:../StdPeripheralDriver/src/stm32f10x_i2c.c ****  *     
 970:../StdPeripheralDriver/src/stm32f10x_i2c.c ****  *
 971:../StdPeripheralDriver/src/stm32f10x_i2c.c ****  *  3) Flag-based state monitoring:
 972:../StdPeripheralDriver/src/stm32f10x_i2c.c ****  *     Using the function I2C_GetFlagStatus() which simply returns the status of 
 973:../StdPeripheralDriver/src/stm32f10x_i2c.c ****  *     one single flag (ie. I2C_FLAG_RXNE ...). 
 974:../StdPeripheralDriver/src/stm32f10x_i2c.c ****  *     - When to use:
 975:../StdPeripheralDriver/src/stm32f10x_i2c.c ****  *        - This function could be used for specific applications or in debug phase.
 976:../StdPeripheralDriver/src/stm32f10x_i2c.c ****  *        - It is suitable when only one flag checking is needed (most I2C events 
 977:../StdPeripheralDriver/src/stm32f10x_i2c.c ****  *          are monitored through multiple flags).
 978:../StdPeripheralDriver/src/stm32f10x_i2c.c ****  *     - Limitations: 
 979:../StdPeripheralDriver/src/stm32f10x_i2c.c ****  *        - When calling this function, the Status register is accessed. Some flags are
 980:../StdPeripheralDriver/src/stm32f10x_i2c.c ****  *          cleared when the status register is accessed. So checking the status
 981:../StdPeripheralDriver/src/stm32f10x_i2c.c ****  *          of one Flag, may clear other ones.
 982:../StdPeripheralDriver/src/stm32f10x_i2c.c ****  *        - Function may need to be called twice or more in order to monitor one 
 983:../StdPeripheralDriver/src/stm32f10x_i2c.c ****  *          single event.
 984:../StdPeripheralDriver/src/stm32f10x_i2c.c ****  *
 985:../StdPeripheralDriver/src/stm32f10x_i2c.c ****  *  For detailed description of Events, please refer to section I2C_Events in 
 986:../StdPeripheralDriver/src/stm32f10x_i2c.c ****  *  stm32f10x_i2c.h file.
 987:../StdPeripheralDriver/src/stm32f10x_i2c.c ****  *  
 988:../StdPeripheralDriver/src/stm32f10x_i2c.c ****  */
 989:../StdPeripheralDriver/src/stm32f10x_i2c.c **** 
 990:../StdPeripheralDriver/src/stm32f10x_i2c.c **** /**
 991:../StdPeripheralDriver/src/stm32f10x_i2c.c ****  * 
 992:../StdPeripheralDriver/src/stm32f10x_i2c.c ****  *  1) Basic state monitoring
 993:../StdPeripheralDriver/src/stm32f10x_i2c.c ****  *******************************************************************************
 994:../StdPeripheralDriver/src/stm32f10x_i2c.c ****  */
 995:../StdPeripheralDriver/src/stm32f10x_i2c.c **** 
 996:../StdPeripheralDriver/src/stm32f10x_i2c.c **** /**
 997:../StdPeripheralDriver/src/stm32f10x_i2c.c ****   * @brief  Checks whether the last I2Cx Event is equal to the one passed
 998:../StdPeripheralDriver/src/stm32f10x_i2c.c ****   *   as parameter.
 999:../StdPeripheralDriver/src/stm32f10x_i2c.c ****   * @param  I2Cx: where x can be 1 or 2 to select the I2C peripheral.
1000:../StdPeripheralDriver/src/stm32f10x_i2c.c ****   * @param  I2C_EVENT: specifies the event to be checked. 
1001:../StdPeripheralDriver/src/stm32f10x_i2c.c ****   *   This parameter can be one of the following values:
1002:../StdPeripheralDriver/src/stm32f10x_i2c.c ****   *     @arg I2C_EVENT_SLAVE_TRANSMITTER_ADDRESS_MATCHED           : EV1
1003:../StdPeripheralDriver/src/stm32f10x_i2c.c ****   *     @arg I2C_EVENT_SLAVE_RECEIVER_ADDRESS_MATCHED              : EV1
1004:../StdPeripheralDriver/src/stm32f10x_i2c.c ****   *     @arg I2C_EVENT_SLAVE_TRANSMITTER_SECONDADDRESS_MATCHED     : EV1
1005:../StdPeripheralDriver/src/stm32f10x_i2c.c ****   *     @arg I2C_EVENT_SLAVE_RECEIVER_SECONDADDRESS_MATCHED        : EV1
1006:../StdPeripheralDriver/src/stm32f10x_i2c.c ****   *     @arg I2C_EVENT_SLAVE_GENERALCALLADDRESS_MATCHED            : EV1
1007:../StdPeripheralDriver/src/stm32f10x_i2c.c ****   *     @arg I2C_EVENT_SLAVE_BYTE_RECEIVED                         : EV2
1008:../StdPeripheralDriver/src/stm32f10x_i2c.c ****   *     @arg (I2C_EVENT_SLAVE_BYTE_RECEIVED | I2C_FLAG_DUALF)      : EV2
1009:../StdPeripheralDriver/src/stm32f10x_i2c.c ****   *     @arg (I2C_EVENT_SLAVE_BYTE_RECEIVED | I2C_FLAG_GENCALL)    : EV2
1010:../StdPeripheralDriver/src/stm32f10x_i2c.c ****   *     @arg I2C_EVENT_SLAVE_BYTE_TRANSMITTED                      : EV3
1011:../StdPeripheralDriver/src/stm32f10x_i2c.c ****   *     @arg (I2C_EVENT_SLAVE_BYTE_TRANSMITTED | I2C_FLAG_DUALF)   : EV3
1012:../StdPeripheralDriver/src/stm32f10x_i2c.c ****   *     @arg (I2C_EVENT_SLAVE_BYTE_TRANSMITTED | I2C_FLAG_GENCALL) : EV3
1013:../StdPeripheralDriver/src/stm32f10x_i2c.c ****   *     @arg I2C_EVENT_SLAVE_ACK_FAILURE                           : EV3_2
1014:../StdPeripheralDriver/src/stm32f10x_i2c.c ****   *     @arg I2C_EVENT_SLAVE_STOP_DETECTED                         : EV4
1015:../StdPeripheralDriver/src/stm32f10x_i2c.c ****   *     @arg I2C_EVENT_MASTER_MODE_SELECT                          : EV5
1016:../StdPeripheralDriver/src/stm32f10x_i2c.c ****   *     @arg I2C_EVENT_MASTER_TRANSMITTER_MODE_SELECTED            : EV6     
1017:../StdPeripheralDriver/src/stm32f10x_i2c.c ****   *     @arg I2C_EVENT_MASTER_RECEIVER_MODE_SELECTED               : EV6
1018:../StdPeripheralDriver/src/stm32f10x_i2c.c ****   *     @arg I2C_EVENT_MASTER_BYTE_RECEIVED                        : EV7
1019:../StdPeripheralDriver/src/stm32f10x_i2c.c ****   *     @arg I2C_EVENT_MASTER_BYTE_TRANSMITTING                    : EV8
1020:../StdPeripheralDriver/src/stm32f10x_i2c.c ****   *     @arg I2C_EVENT_MASTER_BYTE_TRANSMITTED                     : EV8_2
1021:../StdPeripheralDriver/src/stm32f10x_i2c.c ****   *     @arg I2C_EVENT_MASTER_MODE_ADDRESS10                       : EV9
1022:../StdPeripheralDriver/src/stm32f10x_i2c.c ****   *     
1023:../StdPeripheralDriver/src/stm32f10x_i2c.c ****   * @note: For detailed description of Events, please refer to section 
1024:../StdPeripheralDriver/src/stm32f10x_i2c.c ****   *    I2C_Events in stm32f10x_i2c.h file.
1025:../StdPeripheralDriver/src/stm32f10x_i2c.c ****   *    
1026:../StdPeripheralDriver/src/stm32f10x_i2c.c ****   * @retval An ErrorStatus enumeration value:
1027:../StdPeripheralDriver/src/stm32f10x_i2c.c ****   * - SUCCESS: Last event is equal to the I2C_EVENT
1028:../StdPeripheralDriver/src/stm32f10x_i2c.c ****   * - ERROR: Last event is different from the I2C_EVENT
1029:../StdPeripheralDriver/src/stm32f10x_i2c.c ****   */
1030:../StdPeripheralDriver/src/stm32f10x_i2c.c **** ErrorStatus I2C_CheckEvent(I2C_TypeDef* I2Cx, uint32_t I2C_EVENT)
1031:../StdPeripheralDriver/src/stm32f10x_i2c.c **** {
 19633              		.loc 1 1031 0
 19634              		.cfi_startproc
 19635              		@ args = 0, pretend = 0, frame = 24
 19636              		@ frame_needed = 1, uses_anonymous_args = 0
 19637              		@ link register save eliminated.
 19638 0000 80B4     		push	{r7}
 19639              	.LCFI81:
 19640              		.cfi_def_cfa_offset 4
 19641 0002 87B0     		sub	sp, sp, #28
 19642              	.LCFI82:
 19643              		.cfi_def_cfa_offset 32
 19644 0004 00AF     		add	r7, sp, #0
 19645              		.cfi_offset 7, -4
 19646              	.LCFI83:
 19647              		.cfi_def_cfa_register 7
 19648 0006 7860     		str	r0, [r7, #4]
 19649 0008 3960     		str	r1, [r7, #0]
1032:../StdPeripheralDriver/src/stm32f10x_i2c.c ****   uint32_t lastevent = 0;
 19650              		.loc 1 1032 0
 19651 000a 4FF00003 		mov	r3, #0
 19652 000e 3B61     		str	r3, [r7, #16]
1033:../StdPeripheralDriver/src/stm32f10x_i2c.c ****   uint32_t flag1 = 0, flag2 = 0;
 19653              		.loc 1 1033 0
 19654 0010 4FF00003 		mov	r3, #0
 19655 0014 FB60     		str	r3, [r7, #12]
 19656 0016 4FF00003 		mov	r3, #0
 19657 001a BB60     		str	r3, [r7, #8]
1034:../StdPeripheralDriver/src/stm32f10x_i2c.c ****   ErrorStatus status = ERROR;
 19658              		.loc 1 1034 0
 19659 001c 4FF00003 		mov	r3, #0
 19660 0020 FB75     		strb	r3, [r7, #23]
1035:../StdPeripheralDriver/src/stm32f10x_i2c.c **** 
1036:../StdPeripheralDriver/src/stm32f10x_i2c.c ****   /* Check the parameters */
1037:../StdPeripheralDriver/src/stm32f10x_i2c.c ****   assert_param(IS_I2C_ALL_PERIPH(I2Cx));
1038:../StdPeripheralDriver/src/stm32f10x_i2c.c ****   assert_param(IS_I2C_EVENT(I2C_EVENT));
1039:../StdPeripheralDriver/src/stm32f10x_i2c.c **** 
1040:../StdPeripheralDriver/src/stm32f10x_i2c.c ****   /* Read the I2Cx status register */
1041:../StdPeripheralDriver/src/stm32f10x_i2c.c ****   flag1 = I2Cx->SR1;
 19661              		.loc 1 1041 0
 19662 0022 7B68     		ldr	r3, [r7, #4]
 19663 0024 9B8A     		ldrh	r3, [r3, #20]	@ movhi
 19664 0026 9BB2     		uxth	r3, r3
 19665 0028 FB60     		str	r3, [r7, #12]
1042:../StdPeripheralDriver/src/stm32f10x_i2c.c ****   flag2 = I2Cx->SR2;
 19666              		.loc 1 1042 0
 19667 002a 7B68     		ldr	r3, [r7, #4]
 19668 002c 1B8B     		ldrh	r3, [r3, #24]	@ movhi
 19669 002e 9BB2     		uxth	r3, r3
 19670 0030 BB60     		str	r3, [r7, #8]
1043:../StdPeripheralDriver/src/stm32f10x_i2c.c ****   flag2 = flag2 << 16;
 19671              		.loc 1 1043 0
 19672 0032 BB68     		ldr	r3, [r7, #8]
 19673 0034 4FEA0343 		lsl	r3, r3, #16
 19674 0038 BB60     		str	r3, [r7, #8]
1044:../StdPeripheralDriver/src/stm32f10x_i2c.c **** 
1045:../StdPeripheralDriver/src/stm32f10x_i2c.c ****   /* Get the last event value from I2C status register */
1046:../StdPeripheralDriver/src/stm32f10x_i2c.c ****   lastevent = (flag1 | flag2) & FLAG_Mask;
 19675              		.loc 1 1046 0
 19676 003a FA68     		ldr	r2, [r7, #12]
 19677 003c BB68     		ldr	r3, [r7, #8]
 19678 003e 42EA0303 		orr	r3, r2, r3
 19679 0042 23F07F43 		bic	r3, r3, #-16777216
 19680 0046 3B61     		str	r3, [r7, #16]
1047:../StdPeripheralDriver/src/stm32f10x_i2c.c **** 
1048:../StdPeripheralDriver/src/stm32f10x_i2c.c ****   /* Check whether the last event contains the I2C_EVENT */
1049:../StdPeripheralDriver/src/stm32f10x_i2c.c ****   if ((lastevent & I2C_EVENT) == I2C_EVENT)
 19681              		.loc 1 1049 0
 19682 0048 3A69     		ldr	r2, [r7, #16]
 19683 004a 3B68     		ldr	r3, [r7, #0]
 19684 004c 1A40     		ands	r2, r2, r3
 19685 004e 3B68     		ldr	r3, [r7, #0]
 19686 0050 9A42     		cmp	r2, r3
 19687 0052 03D1     		bne	.L79
1050:../StdPeripheralDriver/src/stm32f10x_i2c.c ****   {
1051:../StdPeripheralDriver/src/stm32f10x_i2c.c ****     /* SUCCESS: last event is equal to I2C_EVENT */
1052:../StdPeripheralDriver/src/stm32f10x_i2c.c ****     status = SUCCESS;
 19688              		.loc 1 1052 0
 19689 0054 4FF00103 		mov	r3, #1
 19690 0058 FB75     		strb	r3, [r7, #23]
 19691 005a 02E0     		b	.L80
 19692              	.L79:
1053:../StdPeripheralDriver/src/stm32f10x_i2c.c ****   }
1054:../StdPeripheralDriver/src/stm32f10x_i2c.c ****   else
1055:../StdPeripheralDriver/src/stm32f10x_i2c.c ****   {
1056:../StdPeripheralDriver/src/stm32f10x_i2c.c ****     /* ERROR: last event is different from I2C_EVENT */
1057:../StdPeripheralDriver/src/stm32f10x_i2c.c ****     status = ERROR;
 19693              		.loc 1 1057 0
 19694 005c 4FF00003 		mov	r3, #0
 19695 0060 FB75     		strb	r3, [r7, #23]
 19696              	.L80:
1058:../StdPeripheralDriver/src/stm32f10x_i2c.c ****   }
1059:../StdPeripheralDriver/src/stm32f10x_i2c.c ****   /* Return status */
1060:../StdPeripheralDriver/src/stm32f10x_i2c.c ****   return status;
 19697              		.loc 1 1060 0
 19698 0062 FB7D     		ldrb	r3, [r7, #23]	@ zero_extendqisi2
1061:../StdPeripheralDriver/src/stm32f10x_i2c.c **** }
 19699              		.loc 1 1061 0
 19700 0064 1846     		mov	r0, r3
 19701 0066 07F11C07 		add	r7, r7, #28
 19702 006a BD46     		mov	sp, r7
 19703 006c 80BC     		pop	{r7}
 19704 006e 7047     		bx	lr
 19705              		.cfi_endproc
 19706              	.LFE56:
 19708              		.section	.text.I2C_GetLastEvent,"ax",%progbits
 19709              		.align	2
 19710              		.global	I2C_GetLastEvent
 19711              		.thumb
 19712              		.thumb_func
 19714              	I2C_GetLastEvent:
 19715              	.LFB57:
1062:../StdPeripheralDriver/src/stm32f10x_i2c.c **** 
1063:../StdPeripheralDriver/src/stm32f10x_i2c.c **** /**
1064:../StdPeripheralDriver/src/stm32f10x_i2c.c ****  * 
1065:../StdPeripheralDriver/src/stm32f10x_i2c.c ****  *  2) Advanced state monitoring
1066:../StdPeripheralDriver/src/stm32f10x_i2c.c ****  *******************************************************************************
1067:../StdPeripheralDriver/src/stm32f10x_i2c.c ****  */
1068:../StdPeripheralDriver/src/stm32f10x_i2c.c **** 
1069:../StdPeripheralDriver/src/stm32f10x_i2c.c **** /**
1070:../StdPeripheralDriver/src/stm32f10x_i2c.c ****   * @brief  Returns the last I2Cx Event.
1071:../StdPeripheralDriver/src/stm32f10x_i2c.c ****   * @param  I2Cx: where x can be 1 or 2 to select the I2C peripheral.
1072:../StdPeripheralDriver/src/stm32f10x_i2c.c ****   *     
1073:../StdPeripheralDriver/src/stm32f10x_i2c.c ****   * @note: For detailed description of Events, please refer to section 
1074:../StdPeripheralDriver/src/stm32f10x_i2c.c ****   *    I2C_Events in stm32f10x_i2c.h file.
1075:../StdPeripheralDriver/src/stm32f10x_i2c.c ****   *    
1076:../StdPeripheralDriver/src/stm32f10x_i2c.c ****   * @retval The last event
1077:../StdPeripheralDriver/src/stm32f10x_i2c.c ****   */
1078:../StdPeripheralDriver/src/stm32f10x_i2c.c **** uint32_t I2C_GetLastEvent(I2C_TypeDef* I2Cx)
1079:../StdPeripheralDriver/src/stm32f10x_i2c.c **** {
 19716              		.loc 1 1079 0
 19717              		.cfi_startproc
 19718              		@ args = 0, pretend = 0, frame = 24
 19719              		@ frame_needed = 1, uses_anonymous_args = 0
 19720              		@ link register save eliminated.
 19721 0000 80B4     		push	{r7}
 19722              	.LCFI84:
 19723              		.cfi_def_cfa_offset 4
 19724 0002 87B0     		sub	sp, sp, #28
 19725              	.LCFI85:
 19726              		.cfi_def_cfa_offset 32
 19727 0004 00AF     		add	r7, sp, #0
 19728              		.cfi_offset 7, -4
 19729              	.LCFI86:
 19730              		.cfi_def_cfa_register 7
 19731 0006 7860     		str	r0, [r7, #4]
1080:../StdPeripheralDriver/src/stm32f10x_i2c.c ****   uint32_t lastevent = 0;
 19732              		.loc 1 1080 0
 19733 0008 4FF00003 		mov	r3, #0
 19734 000c 7B61     		str	r3, [r7, #20]
1081:../StdPeripheralDriver/src/stm32f10x_i2c.c ****   uint32_t flag1 = 0, flag2 = 0;
 19735              		.loc 1 1081 0
 19736 000e 4FF00003 		mov	r3, #0
 19737 0012 3B61     		str	r3, [r7, #16]
 19738 0014 4FF00003 		mov	r3, #0
 19739 0018 FB60     		str	r3, [r7, #12]
1082:../StdPeripheralDriver/src/stm32f10x_i2c.c **** 
1083:../StdPeripheralDriver/src/stm32f10x_i2c.c ****   /* Check the parameters */
1084:../StdPeripheralDriver/src/stm32f10x_i2c.c ****   assert_param(IS_I2C_ALL_PERIPH(I2Cx));
1085:../StdPeripheralDriver/src/stm32f10x_i2c.c **** 
1086:../StdPeripheralDriver/src/stm32f10x_i2c.c ****   /* Read the I2Cx status register */
1087:../StdPeripheralDriver/src/stm32f10x_i2c.c ****   flag1 = I2Cx->SR1;
 19740              		.loc 1 1087 0
 19741 001a 7B68     		ldr	r3, [r7, #4]
 19742 001c 9B8A     		ldrh	r3, [r3, #20]	@ movhi
 19743 001e 9BB2     		uxth	r3, r3
 19744 0020 3B61     		str	r3, [r7, #16]
1088:../StdPeripheralDriver/src/stm32f10x_i2c.c ****   flag2 = I2Cx->SR2;
 19745              		.loc 1 1088 0
 19746 0022 7B68     		ldr	r3, [r7, #4]
 19747 0024 1B8B     		ldrh	r3, [r3, #24]	@ movhi
 19748 0026 9BB2     		uxth	r3, r3
 19749 0028 FB60     		str	r3, [r7, #12]
1089:../StdPeripheralDriver/src/stm32f10x_i2c.c ****   flag2 = flag2 << 16;
 19750              		.loc 1 1089 0
 19751 002a FB68     		ldr	r3, [r7, #12]
 19752 002c 4FEA0343 		lsl	r3, r3, #16
 19753 0030 FB60     		str	r3, [r7, #12]
1090:../StdPeripheralDriver/src/stm32f10x_i2c.c **** 
1091:../StdPeripheralDriver/src/stm32f10x_i2c.c ****   /* Get the last event value from I2C status register */
1092:../StdPeripheralDriver/src/stm32f10x_i2c.c ****   lastevent = (flag1 | flag2) & FLAG_Mask;
 19754              		.loc 1 1092 0
 19755 0032 3A69     		ldr	r2, [r7, #16]
 19756 0034 FB68     		ldr	r3, [r7, #12]
 19757 0036 42EA0303 		orr	r3, r2, r3
 19758 003a 23F07F43 		bic	r3, r3, #-16777216
 19759 003e 7B61     		str	r3, [r7, #20]
1093:../StdPeripheralDriver/src/stm32f10x_i2c.c **** 
1094:../StdPeripheralDriver/src/stm32f10x_i2c.c ****   /* Return status */
1095:../StdPeripheralDriver/src/stm32f10x_i2c.c ****   return lastevent;
 19760              		.loc 1 1095 0
 19761 0040 7B69     		ldr	r3, [r7, #20]
1096:../StdPeripheralDriver/src/stm32f10x_i2c.c **** }
 19762              		.loc 1 1096 0
 19763 0042 1846     		mov	r0, r3
 19764 0044 07F11C07 		add	r7, r7, #28
 19765 0048 BD46     		mov	sp, r7
 19766 004a 80BC     		pop	{r7}
 19767 004c 7047     		bx	lr
 19768              		.cfi_endproc
 19769              	.LFE57:
 19771 004e 00BF     		.section	.text.I2C_GetFlagStatus,"ax",%progbits
 19772              		.align	2
 19773              		.global	I2C_GetFlagStatus
 19774              		.thumb
 19775              		.thumb_func
 19777              	I2C_GetFlagStatus:
 19778              	.LFB58:
1097:../StdPeripheralDriver/src/stm32f10x_i2c.c **** 
1098:../StdPeripheralDriver/src/stm32f10x_i2c.c **** /**
1099:../StdPeripheralDriver/src/stm32f10x_i2c.c ****  * 
1100:../StdPeripheralDriver/src/stm32f10x_i2c.c ****  *  3) Flag-based state monitoring
1101:../StdPeripheralDriver/src/stm32f10x_i2c.c ****  *******************************************************************************
1102:../StdPeripheralDriver/src/stm32f10x_i2c.c ****  */
1103:../StdPeripheralDriver/src/stm32f10x_i2c.c **** 
1104:../StdPeripheralDriver/src/stm32f10x_i2c.c **** /**
1105:../StdPeripheralDriver/src/stm32f10x_i2c.c ****   * @brief  Checks whether the specified I2C flag is set or not.
1106:../StdPeripheralDriver/src/stm32f10x_i2c.c ****   * @param  I2Cx: where x can be 1 or 2 to select the I2C peripheral.
1107:../StdPeripheralDriver/src/stm32f10x_i2c.c ****   * @param  I2C_FLAG: specifies the flag to check. 
1108:../StdPeripheralDriver/src/stm32f10x_i2c.c ****   *   This parameter can be one of the following values:
1109:../StdPeripheralDriver/src/stm32f10x_i2c.c ****   *     @arg I2C_FLAG_DUALF: Dual flag (Slave mode)
1110:../StdPeripheralDriver/src/stm32f10x_i2c.c ****   *     @arg I2C_FLAG_SMBHOST: SMBus host header (Slave mode)
1111:../StdPeripheralDriver/src/stm32f10x_i2c.c ****   *     @arg I2C_FLAG_SMBDEFAULT: SMBus default header (Slave mode)
1112:../StdPeripheralDriver/src/stm32f10x_i2c.c ****   *     @arg I2C_FLAG_GENCALL: General call header flag (Slave mode)
1113:../StdPeripheralDriver/src/stm32f10x_i2c.c ****   *     @arg I2C_FLAG_TRA: Transmitter/Receiver flag
1114:../StdPeripheralDriver/src/stm32f10x_i2c.c ****   *     @arg I2C_FLAG_BUSY: Bus busy flag
1115:../StdPeripheralDriver/src/stm32f10x_i2c.c ****   *     @arg I2C_FLAG_MSL: Master/Slave flag
1116:../StdPeripheralDriver/src/stm32f10x_i2c.c ****   *     @arg I2C_FLAG_SMBALERT: SMBus Alert flag
1117:../StdPeripheralDriver/src/stm32f10x_i2c.c ****   *     @arg I2C_FLAG_TIMEOUT: Timeout or Tlow error flag
1118:../StdPeripheralDriver/src/stm32f10x_i2c.c ****   *     @arg I2C_FLAG_PECERR: PEC error in reception flag
1119:../StdPeripheralDriver/src/stm32f10x_i2c.c ****   *     @arg I2C_FLAG_OVR: Overrun/Underrun flag (Slave mode)
1120:../StdPeripheralDriver/src/stm32f10x_i2c.c ****   *     @arg I2C_FLAG_AF: Acknowledge failure flag
1121:../StdPeripheralDriver/src/stm32f10x_i2c.c ****   *     @arg I2C_FLAG_ARLO: Arbitration lost flag (Master mode)
1122:../StdPeripheralDriver/src/stm32f10x_i2c.c ****   *     @arg I2C_FLAG_BERR: Bus error flag
1123:../StdPeripheralDriver/src/stm32f10x_i2c.c ****   *     @arg I2C_FLAG_TXE: Data register empty flag (Transmitter)
1124:../StdPeripheralDriver/src/stm32f10x_i2c.c ****   *     @arg I2C_FLAG_RXNE: Data register not empty (Receiver) flag
1125:../StdPeripheralDriver/src/stm32f10x_i2c.c ****   *     @arg I2C_FLAG_STOPF: Stop detection flag (Slave mode)
1126:../StdPeripheralDriver/src/stm32f10x_i2c.c ****   *     @arg I2C_FLAG_ADD10: 10-bit header sent flag (Master mode)
1127:../StdPeripheralDriver/src/stm32f10x_i2c.c ****   *     @arg I2C_FLAG_BTF: Byte transfer finished flag
1128:../StdPeripheralDriver/src/stm32f10x_i2c.c ****   *     @arg I2C_FLAG_ADDR: Address sent flag (Master mode) "ADSL"
1129:../StdPeripheralDriver/src/stm32f10x_i2c.c ****   *   Address matched flag (Slave mode)"ENDA"
1130:../StdPeripheralDriver/src/stm32f10x_i2c.c ****   *     @arg I2C_FLAG_SB: Start bit flag (Master mode)
1131:../StdPeripheralDriver/src/stm32f10x_i2c.c ****   * @retval The new state of I2C_FLAG (SET or RESET).
1132:../StdPeripheralDriver/src/stm32f10x_i2c.c ****   */
1133:../StdPeripheralDriver/src/stm32f10x_i2c.c **** FlagStatus I2C_GetFlagStatus(I2C_TypeDef* I2Cx, uint32_t I2C_FLAG)
1134:../StdPeripheralDriver/src/stm32f10x_i2c.c **** {
 19779              		.loc 1 1134 0
 19780              		.cfi_startproc
 19781              		@ args = 0, pretend = 0, frame = 24
 19782              		@ frame_needed = 1, uses_anonymous_args = 0
 19783              		@ link register save eliminated.
 19784 0000 80B4     		push	{r7}
 19785              	.LCFI87:
 19786              		.cfi_def_cfa_offset 4
 19787 0002 87B0     		sub	sp, sp, #28
 19788              	.LCFI88:
 19789              		.cfi_def_cfa_offset 32
 19790 0004 00AF     		add	r7, sp, #0
 19791              		.cfi_offset 7, -4
 19792              	.LCFI89:
 19793              		.cfi_def_cfa_register 7
 19794 0006 7860     		str	r0, [r7, #4]
 19795 0008 3960     		str	r1, [r7, #0]
1135:../StdPeripheralDriver/src/stm32f10x_i2c.c ****   FlagStatus bitstatus = RESET;
 19796              		.loc 1 1135 0
 19797 000a 4FF00003 		mov	r3, #0
 19798 000e FB75     		strb	r3, [r7, #23]
1136:../StdPeripheralDriver/src/stm32f10x_i2c.c ****   __IO uint32_t i2creg = 0, i2cxbase = 0;
 19799              		.loc 1 1136 0
 19800 0010 4FF00003 		mov	r3, #0
 19801 0014 3B61     		str	r3, [r7, #16]
 19802 0016 4FF00003 		mov	r3, #0
 19803 001a FB60     		str	r3, [r7, #12]
1137:../StdPeripheralDriver/src/stm32f10x_i2c.c **** 
1138:../StdPeripheralDriver/src/stm32f10x_i2c.c ****   /* Check the parameters */
1139:../StdPeripheralDriver/src/stm32f10x_i2c.c ****   assert_param(IS_I2C_ALL_PERIPH(I2Cx));
1140:../StdPeripheralDriver/src/stm32f10x_i2c.c ****   assert_param(IS_I2C_GET_FLAG(I2C_FLAG));
1141:../StdPeripheralDriver/src/stm32f10x_i2c.c **** 
1142:../StdPeripheralDriver/src/stm32f10x_i2c.c ****   /* Get the I2Cx peripheral base address */
1143:../StdPeripheralDriver/src/stm32f10x_i2c.c ****   i2cxbase = (uint32_t)I2Cx;
 19804              		.loc 1 1143 0
 19805 001c 7B68     		ldr	r3, [r7, #4]
 19806 001e FB60     		str	r3, [r7, #12]
1144:../StdPeripheralDriver/src/stm32f10x_i2c.c ****   
1145:../StdPeripheralDriver/src/stm32f10x_i2c.c ****   /* Read flag register index */
1146:../StdPeripheralDriver/src/stm32f10x_i2c.c ****   i2creg = I2C_FLAG >> 28;
 19807              		.loc 1 1146 0
 19808 0020 3B68     		ldr	r3, [r7, #0]
 19809 0022 4FEA1373 		lsr	r3, r3, #28
 19810 0026 3B61     		str	r3, [r7, #16]
1147:../StdPeripheralDriver/src/stm32f10x_i2c.c ****   
1148:../StdPeripheralDriver/src/stm32f10x_i2c.c ****   /* Get bit[23:0] of the flag */
1149:../StdPeripheralDriver/src/stm32f10x_i2c.c ****   I2C_FLAG &= FLAG_Mask;
 19811              		.loc 1 1149 0
 19812 0028 3B68     		ldr	r3, [r7, #0]
 19813 002a 23F07F43 		bic	r3, r3, #-16777216
 19814 002e 3B60     		str	r3, [r7, #0]
1150:../StdPeripheralDriver/src/stm32f10x_i2c.c ****   
1151:../StdPeripheralDriver/src/stm32f10x_i2c.c ****   if(i2creg != 0)
 19815              		.loc 1 1151 0
 19816 0030 3B69     		ldr	r3, [r7, #16]
 19817 0032 002B     		cmp	r3, #0
 19818 0034 04D0     		beq	.L83
1152:../StdPeripheralDriver/src/stm32f10x_i2c.c ****   {
1153:../StdPeripheralDriver/src/stm32f10x_i2c.c ****     /* Get the I2Cx SR1 register address */
1154:../StdPeripheralDriver/src/stm32f10x_i2c.c ****     i2cxbase += 0x14;
 19819              		.loc 1 1154 0
 19820 0036 FB68     		ldr	r3, [r7, #12]
 19821 0038 03F11403 		add	r3, r3, #20
 19822 003c FB60     		str	r3, [r7, #12]
 19823 003e 07E0     		b	.L84
 19824              	.L83:
1155:../StdPeripheralDriver/src/stm32f10x_i2c.c ****   }
1156:../StdPeripheralDriver/src/stm32f10x_i2c.c ****   else
1157:../StdPeripheralDriver/src/stm32f10x_i2c.c ****   {
1158:../StdPeripheralDriver/src/stm32f10x_i2c.c ****     /* Flag in I2Cx SR2 Register */
1159:../StdPeripheralDriver/src/stm32f10x_i2c.c ****     I2C_FLAG = (uint32_t)(I2C_FLAG >> 16);
 19825              		.loc 1 1159 0
 19826 0040 3B68     		ldr	r3, [r7, #0]
 19827 0042 4FEA1343 		lsr	r3, r3, #16
 19828 0046 3B60     		str	r3, [r7, #0]
1160:../StdPeripheralDriver/src/stm32f10x_i2c.c ****     /* Get the I2Cx SR2 register address */
1161:../StdPeripheralDriver/src/stm32f10x_i2c.c ****     i2cxbase += 0x18;
 19829              		.loc 1 1161 0
 19830 0048 FB68     		ldr	r3, [r7, #12]
 19831 004a 03F11803 		add	r3, r3, #24
 19832 004e FB60     		str	r3, [r7, #12]
 19833              	.L84:
1162:../StdPeripheralDriver/src/stm32f10x_i2c.c ****   }
1163:../StdPeripheralDriver/src/stm32f10x_i2c.c ****   
1164:../StdPeripheralDriver/src/stm32f10x_i2c.c ****   if(((*(__IO uint32_t *)i2cxbase) & I2C_FLAG) != (uint32_t)RESET)
 19834              		.loc 1 1164 0
 19835 0050 FB68     		ldr	r3, [r7, #12]
 19836 0052 1A68     		ldr	r2, [r3, #0]
 19837 0054 3B68     		ldr	r3, [r7, #0]
 19838 0056 02EA0303 		and	r3, r2, r3
 19839 005a 002B     		cmp	r3, #0
 19840 005c 03D0     		beq	.L85
1165:../StdPeripheralDriver/src/stm32f10x_i2c.c ****   {
1166:../StdPeripheralDriver/src/stm32f10x_i2c.c ****     /* I2C_FLAG is set */
1167:../StdPeripheralDriver/src/stm32f10x_i2c.c ****     bitstatus = SET;
 19841              		.loc 1 1167 0
 19842 005e 4FF00103 		mov	r3, #1
 19843 0062 FB75     		strb	r3, [r7, #23]
 19844 0064 02E0     		b	.L86
 19845              	.L85:
1168:../StdPeripheralDriver/src/stm32f10x_i2c.c ****   }
1169:../StdPeripheralDriver/src/stm32f10x_i2c.c ****   else
1170:../StdPeripheralDriver/src/stm32f10x_i2c.c ****   {
1171:../StdPeripheralDriver/src/stm32f10x_i2c.c ****     /* I2C_FLAG is reset */
1172:../StdPeripheralDriver/src/stm32f10x_i2c.c ****     bitstatus = RESET;
 19846              		.loc 1 1172 0
 19847 0066 4FF00003 		mov	r3, #0
 19848 006a FB75     		strb	r3, [r7, #23]
 19849              	.L86:
1173:../StdPeripheralDriver/src/stm32f10x_i2c.c ****   }
1174:../StdPeripheralDriver/src/stm32f10x_i2c.c ****   
1175:../StdPeripheralDriver/src/stm32f10x_i2c.c ****   /* Return the I2C_FLAG status */
1176:../StdPeripheralDriver/src/stm32f10x_i2c.c ****   return  bitstatus;
 19850              		.loc 1 1176 0
 19851 006c FB7D     		ldrb	r3, [r7, #23]	@ zero_extendqisi2
1177:../StdPeripheralDriver/src/stm32f10x_i2c.c **** }
 19852              		.loc 1 1177 0
 19853 006e 1846     		mov	r0, r3
 19854 0070 07F11C07 		add	r7, r7, #28
 19855 0074 BD46     		mov	sp, r7
 19856 0076 80BC     		pop	{r7}
 19857 0078 7047     		bx	lr
 19858              		.cfi_endproc
 19859              	.LFE58:
 19861 007a 00BF     		.section	.text.I2C_ClearFlag,"ax",%progbits
 19862              		.align	2
 19863              		.global	I2C_ClearFlag
 19864              		.thumb
 19865              		.thumb_func
 19867              	I2C_ClearFlag:
 19868              	.LFB59:
1178:../StdPeripheralDriver/src/stm32f10x_i2c.c **** 
1179:../StdPeripheralDriver/src/stm32f10x_i2c.c **** 
1180:../StdPeripheralDriver/src/stm32f10x_i2c.c **** 
1181:../StdPeripheralDriver/src/stm32f10x_i2c.c **** /**
1182:../StdPeripheralDriver/src/stm32f10x_i2c.c ****   * @brief  Clears the I2Cx's pending flags.
1183:../StdPeripheralDriver/src/stm32f10x_i2c.c ****   * @param  I2Cx: where x can be 1 or 2 to select the I2C peripheral.
1184:../StdPeripheralDriver/src/stm32f10x_i2c.c ****   * @param  I2C_FLAG: specifies the flag to clear. 
1185:../StdPeripheralDriver/src/stm32f10x_i2c.c ****   *   This parameter can be any combination of the following values:
1186:../StdPeripheralDriver/src/stm32f10x_i2c.c ****   *     @arg I2C_FLAG_SMBALERT: SMBus Alert flag
1187:../StdPeripheralDriver/src/stm32f10x_i2c.c ****   *     @arg I2C_FLAG_TIMEOUT: Timeout or Tlow error flag
1188:../StdPeripheralDriver/src/stm32f10x_i2c.c ****   *     @arg I2C_FLAG_PECERR: PEC error in reception flag
1189:../StdPeripheralDriver/src/stm32f10x_i2c.c ****   *     @arg I2C_FLAG_OVR: Overrun/Underrun flag (Slave mode)
1190:../StdPeripheralDriver/src/stm32f10x_i2c.c ****   *     @arg I2C_FLAG_AF: Acknowledge failure flag
1191:../StdPeripheralDriver/src/stm32f10x_i2c.c ****   *     @arg I2C_FLAG_ARLO: Arbitration lost flag (Master mode)
1192:../StdPeripheralDriver/src/stm32f10x_i2c.c ****   *     @arg I2C_FLAG_BERR: Bus error flag
1193:../StdPeripheralDriver/src/stm32f10x_i2c.c ****   *   
1194:../StdPeripheralDriver/src/stm32f10x_i2c.c ****   * @note
1195:../StdPeripheralDriver/src/stm32f10x_i2c.c ****   *   - STOPF (STOP detection) is cleared by software sequence: a read operation 
1196:../StdPeripheralDriver/src/stm32f10x_i2c.c ****   *     to I2C_SR1 register (I2C_GetFlagStatus()) followed by a write operation 
1197:../StdPeripheralDriver/src/stm32f10x_i2c.c ****   *     to I2C_CR1 register (I2C_Cmd() to re-enable the I2C peripheral).
1198:../StdPeripheralDriver/src/stm32f10x_i2c.c ****   *   - ADD10 (10-bit header sent) is cleared by software sequence: a read 
1199:../StdPeripheralDriver/src/stm32f10x_i2c.c ****   *     operation to I2C_SR1 (I2C_GetFlagStatus()) followed by writing the 
1200:../StdPeripheralDriver/src/stm32f10x_i2c.c ****   *     second byte of the address in DR register.
1201:../StdPeripheralDriver/src/stm32f10x_i2c.c ****   *   - BTF (Byte Transfer Finished) is cleared by software sequence: a read 
1202:../StdPeripheralDriver/src/stm32f10x_i2c.c ****   *     operation to I2C_SR1 register (I2C_GetFlagStatus()) followed by a 
1203:../StdPeripheralDriver/src/stm32f10x_i2c.c ****   *     read/write to I2C_DR register (I2C_SendData()).
1204:../StdPeripheralDriver/src/stm32f10x_i2c.c ****   *   - ADDR (Address sent) is cleared by software sequence: a read operation to 
1205:../StdPeripheralDriver/src/stm32f10x_i2c.c ****   *     I2C_SR1 register (I2C_GetFlagStatus()) followed by a read operation to 
1206:../StdPeripheralDriver/src/stm32f10x_i2c.c ****   *     I2C_SR2 register ((void)(I2Cx->SR2)).
1207:../StdPeripheralDriver/src/stm32f10x_i2c.c ****   *   - SB (Start Bit) is cleared software sequence: a read operation to I2C_SR1
1208:../StdPeripheralDriver/src/stm32f10x_i2c.c ****   *     register (I2C_GetFlagStatus()) followed by a write operation to I2C_DR
1209:../StdPeripheralDriver/src/stm32f10x_i2c.c ****   *     register  (I2C_SendData()).
1210:../StdPeripheralDriver/src/stm32f10x_i2c.c ****   * @retval None
1211:../StdPeripheralDriver/src/stm32f10x_i2c.c ****   */
1212:../StdPeripheralDriver/src/stm32f10x_i2c.c **** void I2C_ClearFlag(I2C_TypeDef* I2Cx, uint32_t I2C_FLAG)
1213:../StdPeripheralDriver/src/stm32f10x_i2c.c **** {
 19869              		.loc 1 1213 0
 19870              		.cfi_startproc
 19871              		@ args = 0, pretend = 0, frame = 16
 19872              		@ frame_needed = 1, uses_anonymous_args = 0
 19873              		@ link register save eliminated.
 19874 0000 80B4     		push	{r7}
 19875              	.LCFI90:
 19876              		.cfi_def_cfa_offset 4
 19877 0002 85B0     		sub	sp, sp, #20
 19878              	.LCFI91:
 19879              		.cfi_def_cfa_offset 24
 19880 0004 00AF     		add	r7, sp, #0
 19881              		.cfi_offset 7, -4
 19882              	.LCFI92:
 19883              		.cfi_def_cfa_register 7
 19884 0006 7860     		str	r0, [r7, #4]
 19885 0008 3960     		str	r1, [r7, #0]
1214:../StdPeripheralDriver/src/stm32f10x_i2c.c ****   uint32_t flagpos = 0;
 19886              		.loc 1 1214 0
 19887 000a 4FF00003 		mov	r3, #0
 19888 000e FB60     		str	r3, [r7, #12]
1215:../StdPeripheralDriver/src/stm32f10x_i2c.c ****   /* Check the parameters */
1216:../StdPeripheralDriver/src/stm32f10x_i2c.c ****   assert_param(IS_I2C_ALL_PERIPH(I2Cx));
1217:../StdPeripheralDriver/src/stm32f10x_i2c.c ****   assert_param(IS_I2C_CLEAR_FLAG(I2C_FLAG));
1218:../StdPeripheralDriver/src/stm32f10x_i2c.c ****   /* Get the I2C flag position */
1219:../StdPeripheralDriver/src/stm32f10x_i2c.c ****   flagpos = I2C_FLAG & FLAG_Mask;
 19889              		.loc 1 1219 0
 19890 0010 3B68     		ldr	r3, [r7, #0]
 19891 0012 23F07F43 		bic	r3, r3, #-16777216
 19892 0016 FB60     		str	r3, [r7, #12]
1220:../StdPeripheralDriver/src/stm32f10x_i2c.c ****   /* Clear the selected I2C flag */
1221:../StdPeripheralDriver/src/stm32f10x_i2c.c ****   I2Cx->SR1 = (uint16_t)~flagpos;
 19893              		.loc 1 1221 0
 19894 0018 FB68     		ldr	r3, [r7, #12]
 19895 001a 9BB2     		uxth	r3, r3
 19896 001c 6FEA0303 		mvn	r3, r3
 19897 0020 9AB2     		uxth	r2, r3
 19898 0022 7B68     		ldr	r3, [r7, #4]
 19899 0024 9A82     		strh	r2, [r3, #20]	@ movhi
1222:../StdPeripheralDriver/src/stm32f10x_i2c.c **** }
 19900              		.loc 1 1222 0
 19901 0026 07F11407 		add	r7, r7, #20
 19902 002a BD46     		mov	sp, r7
 19903 002c 80BC     		pop	{r7}
 19904 002e 7047     		bx	lr
 19905              		.cfi_endproc
 19906              	.LFE59:
 19908              		.section	.text.I2C_GetITStatus,"ax",%progbits
 19909              		.align	2
 19910              		.global	I2C_GetITStatus
 19911              		.thumb
 19912              		.thumb_func
 19914              	I2C_GetITStatus:
 19915              	.LFB60:
1223:../StdPeripheralDriver/src/stm32f10x_i2c.c **** 
1224:../StdPeripheralDriver/src/stm32f10x_i2c.c **** /**
1225:../StdPeripheralDriver/src/stm32f10x_i2c.c ****   * @brief  Checks whether the specified I2C interrupt has occurred or not.
1226:../StdPeripheralDriver/src/stm32f10x_i2c.c ****   * @param  I2Cx: where x can be 1 or 2 to select the I2C peripheral.
1227:../StdPeripheralDriver/src/stm32f10x_i2c.c ****   * @param  I2C_IT: specifies the interrupt source to check. 
1228:../StdPeripheralDriver/src/stm32f10x_i2c.c ****   *   This parameter can be one of the following values:
1229:../StdPeripheralDriver/src/stm32f10x_i2c.c ****   *     @arg I2C_IT_SMBALERT: SMBus Alert flag
1230:../StdPeripheralDriver/src/stm32f10x_i2c.c ****   *     @arg I2C_IT_TIMEOUT: Timeout or Tlow error flag
1231:../StdPeripheralDriver/src/stm32f10x_i2c.c ****   *     @arg I2C_IT_PECERR: PEC error in reception flag
1232:../StdPeripheralDriver/src/stm32f10x_i2c.c ****   *     @arg I2C_IT_OVR: Overrun/Underrun flag (Slave mode)
1233:../StdPeripheralDriver/src/stm32f10x_i2c.c ****   *     @arg I2C_IT_AF: Acknowledge failure flag
1234:../StdPeripheralDriver/src/stm32f10x_i2c.c ****   *     @arg I2C_IT_ARLO: Arbitration lost flag (Master mode)
1235:../StdPeripheralDriver/src/stm32f10x_i2c.c ****   *     @arg I2C_IT_BERR: Bus error flag
1236:../StdPeripheralDriver/src/stm32f10x_i2c.c ****   *     @arg I2C_IT_TXE: Data register empty flag (Transmitter)
1237:../StdPeripheralDriver/src/stm32f10x_i2c.c ****   *     @arg I2C_IT_RXNE: Data register not empty (Receiver) flag
1238:../StdPeripheralDriver/src/stm32f10x_i2c.c ****   *     @arg I2C_IT_STOPF: Stop detection flag (Slave mode)
1239:../StdPeripheralDriver/src/stm32f10x_i2c.c ****   *     @arg I2C_IT_ADD10: 10-bit header sent flag (Master mode)
1240:../StdPeripheralDriver/src/stm32f10x_i2c.c ****   *     @arg I2C_IT_BTF: Byte transfer finished flag
1241:../StdPeripheralDriver/src/stm32f10x_i2c.c ****   *     @arg I2C_IT_ADDR: Address sent flag (Master mode) "ADSL"
1242:../StdPeripheralDriver/src/stm32f10x_i2c.c ****   *                       Address matched flag (Slave mode)"ENDAD"
1243:../StdPeripheralDriver/src/stm32f10x_i2c.c ****   *     @arg I2C_IT_SB: Start bit flag (Master mode)
1244:../StdPeripheralDriver/src/stm32f10x_i2c.c ****   * @retval The new state of I2C_IT (SET or RESET).
1245:../StdPeripheralDriver/src/stm32f10x_i2c.c ****   */
1246:../StdPeripheralDriver/src/stm32f10x_i2c.c **** ITStatus I2C_GetITStatus(I2C_TypeDef* I2Cx, uint32_t I2C_IT)
1247:../StdPeripheralDriver/src/stm32f10x_i2c.c **** {
 19916              		.loc 1 1247 0
 19917              		.cfi_startproc
 19918              		@ args = 0, pretend = 0, frame = 16
 19919              		@ frame_needed = 1, uses_anonymous_args = 0
 19920              		@ link register save eliminated.
 19921 0000 80B4     		push	{r7}
 19922              	.LCFI93:
 19923              		.cfi_def_cfa_offset 4
 19924 0002 85B0     		sub	sp, sp, #20
 19925              	.LCFI94:
 19926              		.cfi_def_cfa_offset 24
 19927 0004 00AF     		add	r7, sp, #0
 19928              		.cfi_offset 7, -4
 19929              	.LCFI95:
 19930              		.cfi_def_cfa_register 7
 19931 0006 7860     		str	r0, [r7, #4]
 19932 0008 3960     		str	r1, [r7, #0]
1248:../StdPeripheralDriver/src/stm32f10x_i2c.c ****   ITStatus bitstatus = RESET;
 19933              		.loc 1 1248 0
 19934 000a 4FF00003 		mov	r3, #0
 19935 000e FB73     		strb	r3, [r7, #15]
1249:../StdPeripheralDriver/src/stm32f10x_i2c.c ****   uint32_t enablestatus = 0;
 19936              		.loc 1 1249 0
 19937 0010 4FF00003 		mov	r3, #0
 19938 0014 BB60     		str	r3, [r7, #8]
1250:../StdPeripheralDriver/src/stm32f10x_i2c.c **** 
1251:../StdPeripheralDriver/src/stm32f10x_i2c.c ****   /* Check the parameters */
1252:../StdPeripheralDriver/src/stm32f10x_i2c.c ****   assert_param(IS_I2C_ALL_PERIPH(I2Cx));
1253:../StdPeripheralDriver/src/stm32f10x_i2c.c ****   assert_param(IS_I2C_GET_IT(I2C_IT));
1254:../StdPeripheralDriver/src/stm32f10x_i2c.c **** 
1255:../StdPeripheralDriver/src/stm32f10x_i2c.c ****   /* Check if the interrupt source is enabled or not */
1256:../StdPeripheralDriver/src/stm32f10x_i2c.c ****   enablestatus = (uint32_t)(((I2C_IT & ITEN_Mask) >> 16) & (I2Cx->CR2)) ;
 19939              		.loc 1 1256 0
 19940 0016 3B68     		ldr	r3, [r7, #0]
 19941 0018 03F0E063 		and	r3, r3, #117440512
 19942 001c 4FEA1342 		lsr	r2, r3, #16
 19943 0020 7B68     		ldr	r3, [r7, #4]
 19944 0022 9B88     		ldrh	r3, [r3, #4]	@ movhi
 19945 0024 9BB2     		uxth	r3, r3
 19946 0026 02EA0303 		and	r3, r2, r3
 19947 002a BB60     		str	r3, [r7, #8]
1257:../StdPeripheralDriver/src/stm32f10x_i2c.c ****   
1258:../StdPeripheralDriver/src/stm32f10x_i2c.c ****   /* Get bit[23:0] of the flag */
1259:../StdPeripheralDriver/src/stm32f10x_i2c.c ****   I2C_IT &= FLAG_Mask;
 19948              		.loc 1 1259 0
 19949 002c 3B68     		ldr	r3, [r7, #0]
 19950 002e 23F07F43 		bic	r3, r3, #-16777216
 19951 0032 3B60     		str	r3, [r7, #0]
1260:../StdPeripheralDriver/src/stm32f10x_i2c.c **** 
1261:../StdPeripheralDriver/src/stm32f10x_i2c.c ****   /* Check the status of the specified I2C flag */
1262:../StdPeripheralDriver/src/stm32f10x_i2c.c ****   if (((I2Cx->SR1 & I2C_IT) != (uint32_t)RESET) && enablestatus)
 19952              		.loc 1 1262 0
 19953 0034 7B68     		ldr	r3, [r7, #4]
 19954 0036 9B8A     		ldrh	r3, [r3, #20]	@ movhi
 19955 0038 9BB2     		uxth	r3, r3
 19956 003a 1A46     		mov	r2, r3
 19957 003c 3B68     		ldr	r3, [r7, #0]
 19958 003e 02EA0303 		and	r3, r2, r3
 19959 0042 002B     		cmp	r3, #0
 19960 0044 06D0     		beq	.L89
 19961              		.loc 1 1262 0 is_stmt 0 discriminator 1
 19962 0046 BB68     		ldr	r3, [r7, #8]
 19963 0048 002B     		cmp	r3, #0
 19964 004a 03D0     		beq	.L89
1263:../StdPeripheralDriver/src/stm32f10x_i2c.c ****   {
1264:../StdPeripheralDriver/src/stm32f10x_i2c.c ****     /* I2C_IT is set */
1265:../StdPeripheralDriver/src/stm32f10x_i2c.c ****     bitstatus = SET;
 19965              		.loc 1 1265 0 is_stmt 1
 19966 004c 4FF00103 		mov	r3, #1
 19967 0050 FB73     		strb	r3, [r7, #15]
 19968 0052 02E0     		b	.L90
 19969              	.L89:
1266:../StdPeripheralDriver/src/stm32f10x_i2c.c ****   }
1267:../StdPeripheralDriver/src/stm32f10x_i2c.c ****   else
1268:../StdPeripheralDriver/src/stm32f10x_i2c.c ****   {
1269:../StdPeripheralDriver/src/stm32f10x_i2c.c ****     /* I2C_IT is reset */
1270:../StdPeripheralDriver/src/stm32f10x_i2c.c ****     bitstatus = RESET;
 19970              		.loc 1 1270 0
 19971 0054 4FF00003 		mov	r3, #0
 19972 0058 FB73     		strb	r3, [r7, #15]
 19973              	.L90:
1271:../StdPeripheralDriver/src/stm32f10x_i2c.c ****   }
1272:../StdPeripheralDriver/src/stm32f10x_i2c.c ****   /* Return the I2C_IT status */
1273:../StdPeripheralDriver/src/stm32f10x_i2c.c ****   return  bitstatus;
 19974              		.loc 1 1273 0
 19975 005a FB7B     		ldrb	r3, [r7, #15]	@ zero_extendqisi2
1274:../StdPeripheralDriver/src/stm32f10x_i2c.c **** }
 19976              		.loc 1 1274 0
 19977 005c 1846     		mov	r0, r3
 19978 005e 07F11407 		add	r7, r7, #20
 19979 0062 BD46     		mov	sp, r7
 19980 0064 80BC     		pop	{r7}
 19981 0066 7047     		bx	lr
 19982              		.cfi_endproc
 19983              	.LFE60:
 19985              		.section	.text.I2C_ClearITPendingBit,"ax",%progbits
 19986              		.align	2
 19987              		.global	I2C_ClearITPendingBit
 19988              		.thumb
 19989              		.thumb_func
 19991              	I2C_ClearITPendingBit:
 19992              	.LFB61:
1275:../StdPeripheralDriver/src/stm32f10x_i2c.c **** 
1276:../StdPeripheralDriver/src/stm32f10x_i2c.c **** /**
1277:../StdPeripheralDriver/src/stm32f10x_i2c.c ****   * @brief  Clears the I2Cxs interrupt pending bits.
1278:../StdPeripheralDriver/src/stm32f10x_i2c.c ****   * @param  I2Cx: where x can be 1 or 2 to select the I2C peripheral.
1279:../StdPeripheralDriver/src/stm32f10x_i2c.c ****   * @param  I2C_IT: specifies the interrupt pending bit to clear. 
1280:../StdPeripheralDriver/src/stm32f10x_i2c.c ****   *   This parameter can be any combination of the following values:
1281:../StdPeripheralDriver/src/stm32f10x_i2c.c ****   *     @arg I2C_IT_SMBALERT: SMBus Alert interrupt
1282:../StdPeripheralDriver/src/stm32f10x_i2c.c ****   *     @arg I2C_IT_TIMEOUT: Timeout or Tlow error interrupt
1283:../StdPeripheralDriver/src/stm32f10x_i2c.c ****   *     @arg I2C_IT_PECERR: PEC error in reception  interrupt
1284:../StdPeripheralDriver/src/stm32f10x_i2c.c ****   *     @arg I2C_IT_OVR: Overrun/Underrun interrupt (Slave mode)
1285:../StdPeripheralDriver/src/stm32f10x_i2c.c ****   *     @arg I2C_IT_AF: Acknowledge failure interrupt
1286:../StdPeripheralDriver/src/stm32f10x_i2c.c ****   *     @arg I2C_IT_ARLO: Arbitration lost interrupt (Master mode)
1287:../StdPeripheralDriver/src/stm32f10x_i2c.c ****   *     @arg I2C_IT_BERR: Bus error interrupt
1288:../StdPeripheralDriver/src/stm32f10x_i2c.c ****   *   
1289:../StdPeripheralDriver/src/stm32f10x_i2c.c ****   * @note
1290:../StdPeripheralDriver/src/stm32f10x_i2c.c ****   *   - STOPF (STOP detection) is cleared by software sequence: a read operation 
1291:../StdPeripheralDriver/src/stm32f10x_i2c.c ****   *     to I2C_SR1 register (I2C_GetITStatus()) followed by a write operation to 
1292:../StdPeripheralDriver/src/stm32f10x_i2c.c ****   *     I2C_CR1 register (I2C_Cmd() to re-enable the I2C peripheral).
1293:../StdPeripheralDriver/src/stm32f10x_i2c.c ****   *   - ADD10 (10-bit header sent) is cleared by software sequence: a read 
1294:../StdPeripheralDriver/src/stm32f10x_i2c.c ****   *     operation to I2C_SR1 (I2C_GetITStatus()) followed by writing the second 
1295:../StdPeripheralDriver/src/stm32f10x_i2c.c ****   *     byte of the address in I2C_DR register.
1296:../StdPeripheralDriver/src/stm32f10x_i2c.c ****   *   - BTF (Byte Transfer Finished) is cleared by software sequence: a read 
1297:../StdPeripheralDriver/src/stm32f10x_i2c.c ****   *     operation to I2C_SR1 register (I2C_GetITStatus()) followed by a 
1298:../StdPeripheralDriver/src/stm32f10x_i2c.c ****   *     read/write to I2C_DR register (I2C_SendData()).
1299:../StdPeripheralDriver/src/stm32f10x_i2c.c ****   *   - ADDR (Address sent) is cleared by software sequence: a read operation to 
1300:../StdPeripheralDriver/src/stm32f10x_i2c.c ****   *     I2C_SR1 register (I2C_GetITStatus()) followed by a read operation to 
1301:../StdPeripheralDriver/src/stm32f10x_i2c.c ****   *     I2C_SR2 register ((void)(I2Cx->SR2)).
1302:../StdPeripheralDriver/src/stm32f10x_i2c.c ****   *   - SB (Start Bit) is cleared by software sequence: a read operation to 
1303:../StdPeripheralDriver/src/stm32f10x_i2c.c ****   *     I2C_SR1 register (I2C_GetITStatus()) followed by a write operation to 
1304:../StdPeripheralDriver/src/stm32f10x_i2c.c ****   *     I2C_DR register (I2C_SendData()).
1305:../StdPeripheralDriver/src/stm32f10x_i2c.c ****   * @retval None
1306:../StdPeripheralDriver/src/stm32f10x_i2c.c ****   */
1307:../StdPeripheralDriver/src/stm32f10x_i2c.c **** void I2C_ClearITPendingBit(I2C_TypeDef* I2Cx, uint32_t I2C_IT)
1308:../StdPeripheralDriver/src/stm32f10x_i2c.c **** {
 19993              		.loc 1 1308 0
 19994              		.cfi_startproc
 19995              		@ args = 0, pretend = 0, frame = 16
 19996              		@ frame_needed = 1, uses_anonymous_args = 0
 19997              		@ link register save eliminated.
 19998 0000 80B4     		push	{r7}
 19999              	.LCFI96:
 20000              		.cfi_def_cfa_offset 4
 20001 0002 85B0     		sub	sp, sp, #20
 20002              	.LCFI97:
 20003              		.cfi_def_cfa_offset 24
 20004 0004 00AF     		add	r7, sp, #0
 20005              		.cfi_offset 7, -4
 20006              	.LCFI98:
 20007              		.cfi_def_cfa_register 7
 20008 0006 7860     		str	r0, [r7, #4]
 20009 0008 3960     		str	r1, [r7, #0]
1309:../StdPeripheralDriver/src/stm32f10x_i2c.c ****   uint32_t flagpos = 0;
 20010              		.loc 1 1309 0
 20011 000a 4FF00003 		mov	r3, #0
 20012 000e FB60     		str	r3, [r7, #12]
1310:../StdPeripheralDriver/src/stm32f10x_i2c.c ****   /* Check the parameters */
1311:../StdPeripheralDriver/src/stm32f10x_i2c.c ****   assert_param(IS_I2C_ALL_PERIPH(I2Cx));
1312:../StdPeripheralDriver/src/stm32f10x_i2c.c ****   assert_param(IS_I2C_CLEAR_IT(I2C_IT));
1313:../StdPeripheralDriver/src/stm32f10x_i2c.c ****   /* Get the I2C flag position */
1314:../StdPeripheralDriver/src/stm32f10x_i2c.c ****   flagpos = I2C_IT & FLAG_Mask;
 20013              		.loc 1 1314 0
 20014 0010 3B68     		ldr	r3, [r7, #0]
 20015 0012 23F07F43 		bic	r3, r3, #-16777216
 20016 0016 FB60     		str	r3, [r7, #12]
1315:../StdPeripheralDriver/src/stm32f10x_i2c.c ****   /* Clear the selected I2C flag */
1316:../StdPeripheralDriver/src/stm32f10x_i2c.c ****   I2Cx->SR1 = (uint16_t)~flagpos;
 20017              		.loc 1 1316 0
 20018 0018 FB68     		ldr	r3, [r7, #12]
 20019 001a 9BB2     		uxth	r3, r3
 20020 001c 6FEA0303 		mvn	r3, r3
 20021 0020 9AB2     		uxth	r2, r3
 20022 0022 7B68     		ldr	r3, [r7, #4]
 20023 0024 9A82     		strh	r2, [r3, #20]	@ movhi
1317:../StdPeripheralDriver/src/stm32f10x_i2c.c **** }
 20024              		.loc 1 1317 0
 20025 0026 07F11407 		add	r7, r7, #20
 20026 002a BD46     		mov	sp, r7
 20027 002c 80BC     		pop	{r7}
 20028 002e 7047     		bx	lr
 20029              		.cfi_endproc
 20030              	.LFE61:
 20032              		.text
 20033              	.Letext0: