   1              		.syntax unified
   2              		.cpu cortex-m3
   3              		.fpu softvfp
   4              		.eabi_attribute 20, 1
   5              		.eabi_attribute 21, 1
   6              		.eabi_attribute 23, 3
   7              		.eabi_attribute 24, 1
   8              		.eabi_attribute 25, 1
   9              		.eabi_attribute 26, 1
  10              		.eabi_attribute 30, 6
  11              		.eabi_attribute 18, 4
  12              		.thumb
  13              		.file	"stm32f10x_i2c.c"
  23              	.Ltext0:
  24              		.file 1 "../StdPeripheralDriver/src/stm32f10x_i2c.c"
 17219              		.align	2
 17220              		.global	I2C_DeInit
 17221              		.thumb
 17222              		.thumb_func
 17224              	I2C_DeInit:
 17225              	.LFB29:
   1:../StdPeripheralDriver/src/stm32f10x_i2c.c **** /**
   2:../StdPeripheralDriver/src/stm32f10x_i2c.c ****   ******************************************************************************
   3:../StdPeripheralDriver/src/stm32f10x_i2c.c ****   * @file    stm32f10x_i2c.c
   4:../StdPeripheralDriver/src/stm32f10x_i2c.c ****   * @author  MCD Application Team
   5:../StdPeripheralDriver/src/stm32f10x_i2c.c ****   * @version V3.5.0
   6:../StdPeripheralDriver/src/stm32f10x_i2c.c ****   * @date    11-March-2011
   7:../StdPeripheralDriver/src/stm32f10x_i2c.c ****   * @brief   This file provides all the I2C firmware functions.
   8:../StdPeripheralDriver/src/stm32f10x_i2c.c ****   ******************************************************************************
   9:../StdPeripheralDriver/src/stm32f10x_i2c.c ****   * @attention
  10:../StdPeripheralDriver/src/stm32f10x_i2c.c ****   *
  11:../StdPeripheralDriver/src/stm32f10x_i2c.c ****   * THE PRESENT FIRMWARE WHICH IS FOR GUIDANCE ONLY AIMS AT PROVIDING CUSTOMERS
  12:../StdPeripheralDriver/src/stm32f10x_i2c.c ****   * WITH CODING INFORMATION REGARDING THEIR PRODUCTS IN ORDER FOR THEM TO SAVE
  13:../StdPeripheralDriver/src/stm32f10x_i2c.c ****   * TIME. AS A RESULT, STMICROELECTRONICS SHALL NOT BE HELD LIABLE FOR ANY
  14:../StdPeripheralDriver/src/stm32f10x_i2c.c ****   * DIRECT, INDIRECT OR CONSEQUENTIAL DAMAGES WITH RESPECT TO ANY CLAIMS ARISING
  15:../StdPeripheralDriver/src/stm32f10x_i2c.c ****   * FROM THE CONTENT OF SUCH FIRMWARE AND/OR THE USE MADE BY CUSTOMERS OF THE
  16:../StdPeripheralDriver/src/stm32f10x_i2c.c ****   * CODING INFORMATION CONTAINED HEREIN IN CONNECTION WITH THEIR PRODUCTS.
  17:../StdPeripheralDriver/src/stm32f10x_i2c.c ****   *
  18:../StdPeripheralDriver/src/stm32f10x_i2c.c ****   * <h2><center>&copy; COPYRIGHT 2011 STMicroelectronics</center></h2>
  19:../StdPeripheralDriver/src/stm32f10x_i2c.c ****   ******************************************************************************
  20:../StdPeripheralDriver/src/stm32f10x_i2c.c ****   */
  21:../StdPeripheralDriver/src/stm32f10x_i2c.c **** 
  22:../StdPeripheralDriver/src/stm32f10x_i2c.c **** /* Includes ------------------------------------------------------------------*/
  23:../StdPeripheralDriver/src/stm32f10x_i2c.c **** #include "stm32f10x_i2c.h"
  24:../StdPeripheralDriver/src/stm32f10x_i2c.c **** #include "stm32f10x_rcc.h"
  25:../StdPeripheralDriver/src/stm32f10x_i2c.c **** 
  26:../StdPeripheralDriver/src/stm32f10x_i2c.c **** 
  27:../StdPeripheralDriver/src/stm32f10x_i2c.c **** /** @addtogroup STM32F10x_StdPeriph_Driver
  28:../StdPeripheralDriver/src/stm32f10x_i2c.c ****   * @{
  29:../StdPeripheralDriver/src/stm32f10x_i2c.c ****   */
  30:../StdPeripheralDriver/src/stm32f10x_i2c.c **** 
  31:../StdPeripheralDriver/src/stm32f10x_i2c.c **** /** @defgroup I2C 
  32:../StdPeripheralDriver/src/stm32f10x_i2c.c ****   * @brief I2C driver modules
  33:../StdPeripheralDriver/src/stm32f10x_i2c.c ****   * @{
  34:../StdPeripheralDriver/src/stm32f10x_i2c.c ****   */ 
  35:../StdPeripheralDriver/src/stm32f10x_i2c.c **** 
  36:../StdPeripheralDriver/src/stm32f10x_i2c.c **** /** @defgroup I2C_Private_TypesDefinitions
  37:../StdPeripheralDriver/src/stm32f10x_i2c.c ****   * @{
  38:../StdPeripheralDriver/src/stm32f10x_i2c.c ****   */
  39:../StdPeripheralDriver/src/stm32f10x_i2c.c **** 
  40:../StdPeripheralDriver/src/stm32f10x_i2c.c **** /**
  41:../StdPeripheralDriver/src/stm32f10x_i2c.c ****   * @}
  42:../StdPeripheralDriver/src/stm32f10x_i2c.c ****   */
  43:../StdPeripheralDriver/src/stm32f10x_i2c.c **** 
  44:../StdPeripheralDriver/src/stm32f10x_i2c.c **** /** @defgroup I2C_Private_Defines
  45:../StdPeripheralDriver/src/stm32f10x_i2c.c ****   * @{
  46:../StdPeripheralDriver/src/stm32f10x_i2c.c ****   */
  47:../StdPeripheralDriver/src/stm32f10x_i2c.c **** 
  48:../StdPeripheralDriver/src/stm32f10x_i2c.c **** /* I2C SPE mask */
  49:../StdPeripheralDriver/src/stm32f10x_i2c.c **** #define CR1_PE_Set              ((uint16_t)0x0001)
  50:../StdPeripheralDriver/src/stm32f10x_i2c.c **** #define CR1_PE_Reset            ((uint16_t)0xFFFE)
  51:../StdPeripheralDriver/src/stm32f10x_i2c.c **** 
  52:../StdPeripheralDriver/src/stm32f10x_i2c.c **** /* I2C START mask */
  53:../StdPeripheralDriver/src/stm32f10x_i2c.c **** #define CR1_START_Set           ((uint16_t)0x0100)
  54:../StdPeripheralDriver/src/stm32f10x_i2c.c **** #define CR1_START_Reset         ((uint16_t)0xFEFF)
  55:../StdPeripheralDriver/src/stm32f10x_i2c.c **** 
  56:../StdPeripheralDriver/src/stm32f10x_i2c.c **** /* I2C STOP mask */
  57:../StdPeripheralDriver/src/stm32f10x_i2c.c **** #define CR1_STOP_Set            ((uint16_t)0x0200)
  58:../StdPeripheralDriver/src/stm32f10x_i2c.c **** #define CR1_STOP_Reset          ((uint16_t)0xFDFF)
  59:../StdPeripheralDriver/src/stm32f10x_i2c.c **** 
  60:../StdPeripheralDriver/src/stm32f10x_i2c.c **** /* I2C ACK mask */
  61:../StdPeripheralDriver/src/stm32f10x_i2c.c **** #define CR1_ACK_Set             ((uint16_t)0x0400)
  62:../StdPeripheralDriver/src/stm32f10x_i2c.c **** #define CR1_ACK_Reset           ((uint16_t)0xFBFF)
  63:../StdPeripheralDriver/src/stm32f10x_i2c.c **** 
  64:../StdPeripheralDriver/src/stm32f10x_i2c.c **** /* I2C ENGC mask */
  65:../StdPeripheralDriver/src/stm32f10x_i2c.c **** #define CR1_ENGC_Set            ((uint16_t)0x0040)
  66:../StdPeripheralDriver/src/stm32f10x_i2c.c **** #define CR1_ENGC_Reset          ((uint16_t)0xFFBF)
  67:../StdPeripheralDriver/src/stm32f10x_i2c.c **** 
  68:../StdPeripheralDriver/src/stm32f10x_i2c.c **** /* I2C SWRST mask */
  69:../StdPeripheralDriver/src/stm32f10x_i2c.c **** #define CR1_SWRST_Set           ((uint16_t)0x8000)
  70:../StdPeripheralDriver/src/stm32f10x_i2c.c **** #define CR1_SWRST_Reset         ((uint16_t)0x7FFF)
  71:../StdPeripheralDriver/src/stm32f10x_i2c.c **** 
  72:../StdPeripheralDriver/src/stm32f10x_i2c.c **** /* I2C PEC mask */
  73:../StdPeripheralDriver/src/stm32f10x_i2c.c **** #define CR1_PEC_Set             ((uint16_t)0x1000)
  74:../StdPeripheralDriver/src/stm32f10x_i2c.c **** #define CR1_PEC_Reset           ((uint16_t)0xEFFF)
  75:../StdPeripheralDriver/src/stm32f10x_i2c.c **** 
  76:../StdPeripheralDriver/src/stm32f10x_i2c.c **** /* I2C ENPEC mask */
  77:../StdPeripheralDriver/src/stm32f10x_i2c.c **** #define CR1_ENPEC_Set           ((uint16_t)0x0020)
  78:../StdPeripheralDriver/src/stm32f10x_i2c.c **** #define CR1_ENPEC_Reset         ((uint16_t)0xFFDF)
  79:../StdPeripheralDriver/src/stm32f10x_i2c.c **** 
  80:../StdPeripheralDriver/src/stm32f10x_i2c.c **** /* I2C ENARP mask */
  81:../StdPeripheralDriver/src/stm32f10x_i2c.c **** #define CR1_ENARP_Set           ((uint16_t)0x0010)
  82:../StdPeripheralDriver/src/stm32f10x_i2c.c **** #define CR1_ENARP_Reset         ((uint16_t)0xFFEF)
  83:../StdPeripheralDriver/src/stm32f10x_i2c.c **** 
  84:../StdPeripheralDriver/src/stm32f10x_i2c.c **** /* I2C NOSTRETCH mask */
  85:../StdPeripheralDriver/src/stm32f10x_i2c.c **** #define CR1_NOSTRETCH_Set       ((uint16_t)0x0080)
  86:../StdPeripheralDriver/src/stm32f10x_i2c.c **** #define CR1_NOSTRETCH_Reset     ((uint16_t)0xFF7F)
  87:../StdPeripheralDriver/src/stm32f10x_i2c.c **** 
  88:../StdPeripheralDriver/src/stm32f10x_i2c.c **** /* I2C registers Masks */
  89:../StdPeripheralDriver/src/stm32f10x_i2c.c **** #define CR1_CLEAR_Mask          ((uint16_t)0xFBF5)
  90:../StdPeripheralDriver/src/stm32f10x_i2c.c **** 
  91:../StdPeripheralDriver/src/stm32f10x_i2c.c **** /* I2C DMAEN mask */
  92:../StdPeripheralDriver/src/stm32f10x_i2c.c **** #define CR2_DMAEN_Set           ((uint16_t)0x0800)
  93:../StdPeripheralDriver/src/stm32f10x_i2c.c **** #define CR2_DMAEN_Reset         ((uint16_t)0xF7FF)
  94:../StdPeripheralDriver/src/stm32f10x_i2c.c **** 
  95:../StdPeripheralDriver/src/stm32f10x_i2c.c **** /* I2C LAST mask */
  96:../StdPeripheralDriver/src/stm32f10x_i2c.c **** #define CR2_LAST_Set            ((uint16_t)0x1000)
  97:../StdPeripheralDriver/src/stm32f10x_i2c.c **** #define CR2_LAST_Reset          ((uint16_t)0xEFFF)
  98:../StdPeripheralDriver/src/stm32f10x_i2c.c **** 
  99:../StdPeripheralDriver/src/stm32f10x_i2c.c **** /* I2C FREQ mask */
 100:../StdPeripheralDriver/src/stm32f10x_i2c.c **** #define CR2_FREQ_Reset          ((uint16_t)0xFFC0)
 101:../StdPeripheralDriver/src/stm32f10x_i2c.c **** 
 102:../StdPeripheralDriver/src/stm32f10x_i2c.c **** /* I2C ADD0 mask */
 103:../StdPeripheralDriver/src/stm32f10x_i2c.c **** #define OAR1_ADD0_Set           ((uint16_t)0x0001)
 104:../StdPeripheralDriver/src/stm32f10x_i2c.c **** #define OAR1_ADD0_Reset         ((uint16_t)0xFFFE)
 105:../StdPeripheralDriver/src/stm32f10x_i2c.c **** 
 106:../StdPeripheralDriver/src/stm32f10x_i2c.c **** /* I2C ENDUAL mask */
 107:../StdPeripheralDriver/src/stm32f10x_i2c.c **** #define OAR2_ENDUAL_Set         ((uint16_t)0x0001)
 108:../StdPeripheralDriver/src/stm32f10x_i2c.c **** #define OAR2_ENDUAL_Reset       ((uint16_t)0xFFFE)
 109:../StdPeripheralDriver/src/stm32f10x_i2c.c **** 
 110:../StdPeripheralDriver/src/stm32f10x_i2c.c **** /* I2C ADD2 mask */
 111:../StdPeripheralDriver/src/stm32f10x_i2c.c **** #define OAR2_ADD2_Reset         ((uint16_t)0xFF01)
 112:../StdPeripheralDriver/src/stm32f10x_i2c.c **** 
 113:../StdPeripheralDriver/src/stm32f10x_i2c.c **** /* I2C F/S mask */
 114:../StdPeripheralDriver/src/stm32f10x_i2c.c **** #define CCR_FS_Set              ((uint16_t)0x8000)
 115:../StdPeripheralDriver/src/stm32f10x_i2c.c **** 
 116:../StdPeripheralDriver/src/stm32f10x_i2c.c **** /* I2C CCR mask */
 117:../StdPeripheralDriver/src/stm32f10x_i2c.c **** #define CCR_CCR_Set             ((uint16_t)0x0FFF)
 118:../StdPeripheralDriver/src/stm32f10x_i2c.c **** 
 119:../StdPeripheralDriver/src/stm32f10x_i2c.c **** /* I2C FLAG mask */
 120:../StdPeripheralDriver/src/stm32f10x_i2c.c **** #define FLAG_Mask               ((uint32_t)0x00FFFFFF)
 121:../StdPeripheralDriver/src/stm32f10x_i2c.c **** 
 122:../StdPeripheralDriver/src/stm32f10x_i2c.c **** /* I2C Interrupt Enable mask */
 123:../StdPeripheralDriver/src/stm32f10x_i2c.c **** #define ITEN_Mask               ((uint32_t)0x07000000)
 124:../StdPeripheralDriver/src/stm32f10x_i2c.c **** 
 125:../StdPeripheralDriver/src/stm32f10x_i2c.c **** /**
 126:../StdPeripheralDriver/src/stm32f10x_i2c.c ****   * @}
 127:../StdPeripheralDriver/src/stm32f10x_i2c.c ****   */
 128:../StdPeripheralDriver/src/stm32f10x_i2c.c **** 
 129:../StdPeripheralDriver/src/stm32f10x_i2c.c **** /** @defgroup I2C_Private_Macros
 130:../StdPeripheralDriver/src/stm32f10x_i2c.c ****   * @{
 131:../StdPeripheralDriver/src/stm32f10x_i2c.c ****   */
 132:../StdPeripheralDriver/src/stm32f10x_i2c.c **** 
 133:../StdPeripheralDriver/src/stm32f10x_i2c.c **** /**
 134:../StdPeripheralDriver/src/stm32f10x_i2c.c ****   * @}
 135:../StdPeripheralDriver/src/stm32f10x_i2c.c ****   */
 136:../StdPeripheralDriver/src/stm32f10x_i2c.c **** 
 137:../StdPeripheralDriver/src/stm32f10x_i2c.c **** /** @defgroup I2C_Private_Variables
 138:../StdPeripheralDriver/src/stm32f10x_i2c.c ****   * @{
 139:../StdPeripheralDriver/src/stm32f10x_i2c.c ****   */
 140:../StdPeripheralDriver/src/stm32f10x_i2c.c **** 
 141:../StdPeripheralDriver/src/stm32f10x_i2c.c **** /**
 142:../StdPeripheralDriver/src/stm32f10x_i2c.c ****   * @}
 143:../StdPeripheralDriver/src/stm32f10x_i2c.c ****   */
 144:../StdPeripheralDriver/src/stm32f10x_i2c.c **** 
 145:../StdPeripheralDriver/src/stm32f10x_i2c.c **** /** @defgroup I2C_Private_FunctionPrototypes
 146:../StdPeripheralDriver/src/stm32f10x_i2c.c ****   * @{
 147:../StdPeripheralDriver/src/stm32f10x_i2c.c ****   */
 148:../StdPeripheralDriver/src/stm32f10x_i2c.c **** 
 149:../StdPeripheralDriver/src/stm32f10x_i2c.c **** /**
 150:../StdPeripheralDriver/src/stm32f10x_i2c.c ****   * @}
 151:../StdPeripheralDriver/src/stm32f10x_i2c.c ****   */
 152:../StdPeripheralDriver/src/stm32f10x_i2c.c **** 
 153:../StdPeripheralDriver/src/stm32f10x_i2c.c **** /** @defgroup I2C_Private_Functions
 154:../StdPeripheralDriver/src/stm32f10x_i2c.c ****   * @{
 155:../StdPeripheralDriver/src/stm32f10x_i2c.c ****   */
 156:../StdPeripheralDriver/src/stm32f10x_i2c.c **** 
 157:../StdPeripheralDriver/src/stm32f10x_i2c.c **** /**
 158:../StdPeripheralDriver/src/stm32f10x_i2c.c ****   * @brief  Deinitializes the I2Cx peripheral registers to their default reset values.
 159:../StdPeripheralDriver/src/stm32f10x_i2c.c ****   * @param  I2Cx: where x can be 1 or 2 to select the I2C peripheral.
 160:../StdPeripheralDriver/src/stm32f10x_i2c.c ****   * @retval None
 161:../StdPeripheralDriver/src/stm32f10x_i2c.c ****   */
 162:../StdPeripheralDriver/src/stm32f10x_i2c.c **** void I2C_DeInit(I2C_TypeDef* I2Cx)
 163:../StdPeripheralDriver/src/stm32f10x_i2c.c **** {
 17226              		.loc 1 163 0
 17227              		.cfi_startproc
 17228              		@ args = 0, pretend = 0, frame = 8
 17229              		@ frame_needed = 1, uses_anonymous_args = 0
 17230 0000 80B5     		push	{r7, lr}
 17231              	.LCFI0:
 17232              		.cfi_def_cfa_offset 8
 17233 0002 82B0     		sub	sp, sp, #8
 17234              	.LCFI1:
 17235              		.cfi_def_cfa_offset 16
 17236 0004 00AF     		add	r7, sp, #0
 17237              		.cfi_offset 14, -4
 17238              		.cfi_offset 7, -8
 17239              	.LCFI2:
 17240              		.cfi_def_cfa_register 7
 17241 0006 7860     		str	r0, [r7, #4]
 164:../StdPeripheralDriver/src/stm32f10x_i2c.c ****   /* Check the parameters */
 165:../StdPeripheralDriver/src/stm32f10x_i2c.c ****   assert_param(IS_I2C_ALL_PERIPH(I2Cx));
 166:../StdPeripheralDriver/src/stm32f10x_i2c.c **** 
 167:../StdPeripheralDriver/src/stm32f10x_i2c.c ****   if (I2Cx == I2C1)
 17242              		.loc 1 167 0
 17243 0008 7A68     		ldr	r2, [r7, #4]
 17244 000a 104B     		ldr	r3, .L4
 17245 000c 9A42     		cmp	r2, r3
 17246 000e 0CD1     		bne	.L2
 168:../StdPeripheralDriver/src/stm32f10x_i2c.c ****   {
 169:../StdPeripheralDriver/src/stm32f10x_i2c.c ****     /* Enable I2C1 reset state */
 170:../StdPeripheralDriver/src/stm32f10x_i2c.c ****     RCC_APB1PeriphResetCmd(RCC_APB1Periph_I2C1, ENABLE);
 17247              		.loc 1 170 0
 17248 0010 4FF40010 		mov	r0, #2097152
 17249 0014 4FF00101 		mov	r1, #1
 17250 0018 FFF7FEFF 		bl	RCC_APB1PeriphResetCmd
 171:../StdPeripheralDriver/src/stm32f10x_i2c.c ****     /* Release I2C1 from reset state */
 172:../StdPeripheralDriver/src/stm32f10x_i2c.c ****     RCC_APB1PeriphResetCmd(RCC_APB1Periph_I2C1, DISABLE);
 17251              		.loc 1 172 0
 17252 001c 4FF40010 		mov	r0, #2097152
 17253 0020 4FF00001 		mov	r1, #0
 17254 0024 FFF7FEFF 		bl	RCC_APB1PeriphResetCmd
 17255 0028 0BE0     		b	.L1
 17256              	.L2:
 173:../StdPeripheralDriver/src/stm32f10x_i2c.c ****   }
 174:../StdPeripheralDriver/src/stm32f10x_i2c.c ****   else
 175:../StdPeripheralDriver/src/stm32f10x_i2c.c ****   {
 176:../StdPeripheralDriver/src/stm32f10x_i2c.c ****     /* Enable I2C2 reset state */
 177:../StdPeripheralDriver/src/stm32f10x_i2c.c ****     RCC_APB1PeriphResetCmd(RCC_APB1Periph_I2C2, ENABLE);
 17257              		.loc 1 177 0
 17258 002a 4FF48000 		mov	r0, #4194304
 17259 002e 4FF00101 		mov	r1, #1
 17260 0032 FFF7FEFF 		bl	RCC_APB1PeriphResetCmd
 178:../StdPeripheralDriver/src/stm32f10x_i2c.c ****     /* Release I2C2 from reset state */
 179:../StdPeripheralDriver/src/stm32f10x_i2c.c ****     RCC_APB1PeriphResetCmd(RCC_APB1Periph_I2C2, DISABLE);
 17261              		.loc 1 179 0
 17262 0036 4FF48000 		mov	r0, #4194304
 17263 003a 4FF00001 		mov	r1, #0
 17264 003e FFF7FEFF 		bl	RCC_APB1PeriphResetCmd
 17265              	.L1:
 180:../StdPeripheralDriver/src/stm32f10x_i2c.c ****   }
 181:../StdPeripheralDriver/src/stm32f10x_i2c.c **** }
 17266              		.loc 1 181 0
 17267 0042 07F10807 		add	r7, r7, #8
 17268 0046 BD46     		mov	sp, r7
 17269 0048 80BD     		pop	{r7, pc}
 17270              	.L5:
 17271 004a 00BF     		.align	2
 17272              	.L4:
 17273 004c 00540040 		.word	1073763328
 17274              		.cfi_endproc
 17275              	.LFE29:
 17277              		.section	.text.I2C_Init,"ax",%progbits
 17278              		.align	2
 17279              		.global	I2C_Init
 17280              		.thumb
 17281              		.thumb_func
 17283              	I2C_Init:
 17284              	.LFB30:
 182:../StdPeripheralDriver/src/stm32f10x_i2c.c **** 
 183:../StdPeripheralDriver/src/stm32f10x_i2c.c **** /**
 184:../StdPeripheralDriver/src/stm32f10x_i2c.c ****   * @brief  Initializes the I2Cx peripheral according to the specified 
 185:../StdPeripheralDriver/src/stm32f10x_i2c.c ****   *   parameters in the I2C_InitStruct.
 186:../StdPeripheralDriver/src/stm32f10x_i2c.c ****   * @param  I2Cx: where x can be 1 or 2 to select the I2C peripheral.
 187:../StdPeripheralDriver/src/stm32f10x_i2c.c ****   * @param  I2C_InitStruct: pointer to a I2C_InitTypeDef structure that
 188:../StdPeripheralDriver/src/stm32f10x_i2c.c ****   *   contains the configuration information for the specified I2C peripheral.
 189:../StdPeripheralDriver/src/stm32f10x_i2c.c ****   * @retval None
 190:../StdPeripheralDriver/src/stm32f10x_i2c.c ****   */
 191:../StdPeripheralDriver/src/stm32f10x_i2c.c **** void I2C_Init(I2C_TypeDef* I2Cx, I2C_InitTypeDef* I2C_InitStruct)
 192:../StdPeripheralDriver/src/stm32f10x_i2c.c **** {
 17285              		.loc 1 192 0
 17286              		.cfi_startproc
 17287              		@ args = 0, pretend = 0, frame = 40
 17288              		@ frame_needed = 1, uses_anonymous_args = 0
 17289 0000 80B5     		push	{r7, lr}
 17290              	.LCFI3:
 17291              		.cfi_def_cfa_offset 8
 17292 0002 8AB0     		sub	sp, sp, #40
 17293              	.LCFI4:
 17294              		.cfi_def_cfa_offset 48
 17295 0004 00AF     		add	r7, sp, #0
 17296              		.cfi_offset 14, -4
 17297              		.cfi_offset 7, -8
 17298              	.LCFI5:
 17299              		.cfi_def_cfa_register 7
 17300 0006 7860     		str	r0, [r7, #4]
 17301 0008 3960     		str	r1, [r7, #0]
 193:../StdPeripheralDriver/src/stm32f10x_i2c.c ****   uint16_t tmpreg = 0, freqrange = 0;
 17302              		.loc 1 193 0
 17303 000a 4FF00003 		mov	r3, #0
 17304 000e FB84     		strh	r3, [r7, #38]	@ movhi
 17305 0010 4FF00003 		mov	r3, #0
 17306 0014 7B84     		strh	r3, [r7, #34]	@ movhi
 194:../StdPeripheralDriver/src/stm32f10x_i2c.c ****   uint16_t result = 0x04;
 17307              		.loc 1 194 0
 17308 0016 4FF00403 		mov	r3, #4
 17309 001a BB84     		strh	r3, [r7, #36]	@ movhi
 195:../StdPeripheralDriver/src/stm32f10x_i2c.c ****   uint32_t pclk1 = 8000000;
 17310              		.loc 1 195 0
 17311 001c 604B     		ldr	r3, .L13
 17312 001e FB61     		str	r3, [r7, #28]
 196:../StdPeripheralDriver/src/stm32f10x_i2c.c ****   RCC_ClocksTypeDef  rcc_clocks;
 197:../StdPeripheralDriver/src/stm32f10x_i2c.c ****   /* Check the parameters */
 198:../StdPeripheralDriver/src/stm32f10x_i2c.c ****   assert_param(IS_I2C_ALL_PERIPH(I2Cx));
 199:../StdPeripheralDriver/src/stm32f10x_i2c.c ****   assert_param(IS_I2C_CLOCK_SPEED(I2C_InitStruct->I2C_ClockSpeed));
 200:../StdPeripheralDriver/src/stm32f10x_i2c.c ****   assert_param(IS_I2C_MODE(I2C_InitStruct->I2C_Mode));
 201:../StdPeripheralDriver/src/stm32f10x_i2c.c ****   assert_param(IS_I2C_DUTY_CYCLE(I2C_InitStruct->I2C_DutyCycle));
 202:../StdPeripheralDriver/src/stm32f10x_i2c.c ****   assert_param(IS_I2C_OWN_ADDRESS1(I2C_InitStruct->I2C_OwnAddress1));
 203:../StdPeripheralDriver/src/stm32f10x_i2c.c ****   assert_param(IS_I2C_ACK_STATE(I2C_InitStruct->I2C_Ack));
 204:../StdPeripheralDriver/src/stm32f10x_i2c.c ****   assert_param(IS_I2C_ACKNOWLEDGE_ADDRESS(I2C_InitStruct->I2C_AcknowledgedAddress));
 205:../StdPeripheralDriver/src/stm32f10x_i2c.c **** 
 206:../StdPeripheralDriver/src/stm32f10x_i2c.c **** /*---------------------------- I2Cx CR2 Configuration ------------------------*/
 207:../StdPeripheralDriver/src/stm32f10x_i2c.c ****   /* Get the I2Cx CR2 value */
 208:../StdPeripheralDriver/src/stm32f10x_i2c.c ****   tmpreg = I2Cx->CR2;
 17313              		.loc 1 208 0
 17314 0020 7B68     		ldr	r3, [r7, #4]
 17315 0022 9B88     		ldrh	r3, [r3, #4]	@ movhi
 17316 0024 FB84     		strh	r3, [r7, #38]	@ movhi
 209:../StdPeripheralDriver/src/stm32f10x_i2c.c ****   /* Clear frequency FREQ[5:0] bits */
 210:../StdPeripheralDriver/src/stm32f10x_i2c.c ****   tmpreg &= CR2_FREQ_Reset;
 17317              		.loc 1 210 0
 17318 0026 FB8C     		ldrh	r3, [r7, #38]	@ movhi
 17319 0028 23F03F03 		bic	r3, r3, #63
 17320 002c FB84     		strh	r3, [r7, #38]	@ movhi
 211:../StdPeripheralDriver/src/stm32f10x_i2c.c ****   /* Get pclk1 frequency value */
 212:../StdPeripheralDriver/src/stm32f10x_i2c.c ****   RCC_GetClocksFreq(&rcc_clocks);
 17321              		.loc 1 212 0
 17322 002e 07F10803 		add	r3, r7, #8
 17323 0032 1846     		mov	r0, r3
 17324 0034 FFF7FEFF 		bl	RCC_GetClocksFreq
 213:../StdPeripheralDriver/src/stm32f10x_i2c.c ****   pclk1 = rcc_clocks.PCLK1_Frequency;
 17325              		.loc 1 213 0
 17326 0038 3B69     		ldr	r3, [r7, #16]
 17327 003a FB61     		str	r3, [r7, #28]
 214:../StdPeripheralDriver/src/stm32f10x_i2c.c ****   /* Set frequency bits depending on pclk1 value */
 215:../StdPeripheralDriver/src/stm32f10x_i2c.c ****   freqrange = (uint16_t)(pclk1 / 1000000);
 17328              		.loc 1 215 0
 17329 003c FA69     		ldr	r2, [r7, #28]
 17330 003e 594B     		ldr	r3, .L13+4
 17331 0040 A3FB0213 		umull	r1, r3, r3, r2
 17332 0044 4FEA9343 		lsr	r3, r3, #18
 17333 0048 7B84     		strh	r3, [r7, #34]	@ movhi
 216:../StdPeripheralDriver/src/stm32f10x_i2c.c ****   tmpreg |= freqrange;
 17334              		.loc 1 216 0
 17335 004a FA8C     		ldrh	r2, [r7, #38]	@ movhi
 17336 004c 7B8C     		ldrh	r3, [r7, #34]	@ movhi
 17337 004e 42EA0303 		orr	r3, r2, r3
 17338 0052 FB84     		strh	r3, [r7, #38]	@ movhi
 217:../StdPeripheralDriver/src/stm32f10x_i2c.c ****   /* Write to I2Cx CR2 */
 218:../StdPeripheralDriver/src/stm32f10x_i2c.c ****   I2Cx->CR2 = tmpreg;
 17339              		.loc 1 218 0
 17340 0054 7B68     		ldr	r3, [r7, #4]
 17341 0056 FA8C     		ldrh	r2, [r7, #38]	@ movhi
 17342 0058 9A80     		strh	r2, [r3, #4]	@ movhi
 219:../StdPeripheralDriver/src/stm32f10x_i2c.c **** 
 220:../StdPeripheralDriver/src/stm32f10x_i2c.c **** /*---------------------------- I2Cx CCR Configuration ------------------------*/
 221:../StdPeripheralDriver/src/stm32f10x_i2c.c ****   /* Disable the selected I2C peripheral to configure TRISE */
 222:../StdPeripheralDriver/src/stm32f10x_i2c.c ****   I2Cx->CR1 &= CR1_PE_Reset;
 17343              		.loc 1 222 0
 17344 005a 7B68     		ldr	r3, [r7, #4]
 17345 005c 1B88     		ldrh	r3, [r3, #0]	@ movhi
 17346 005e 9BB2     		uxth	r3, r3
 17347 0060 23F00103 		bic	r3, r3, #1
 17348 0064 9AB2     		uxth	r2, r3
 17349 0066 7B68     		ldr	r3, [r7, #4]
 17350 0068 1A80     		strh	r2, [r3, #0]	@ movhi
 223:../StdPeripheralDriver/src/stm32f10x_i2c.c ****   /* Reset tmpreg value */
 224:../StdPeripheralDriver/src/stm32f10x_i2c.c ****   /* Clear F/S, DUTY and CCR[11:0] bits */
 225:../StdPeripheralDriver/src/stm32f10x_i2c.c ****   tmpreg = 0;
 17351              		.loc 1 225 0
 17352 006a 4FF00003 		mov	r3, #0
 17353 006e FB84     		strh	r3, [r7, #38]	@ movhi
 226:../StdPeripheralDriver/src/stm32f10x_i2c.c **** 
 227:../StdPeripheralDriver/src/stm32f10x_i2c.c ****   /* Configure speed in standard mode */
 228:../StdPeripheralDriver/src/stm32f10x_i2c.c ****   if (I2C_InitStruct->I2C_ClockSpeed <= 100000)
 17354              		.loc 1 228 0
 17355 0070 3B68     		ldr	r3, [r7, #0]
 17356 0072 1A68     		ldr	r2, [r3, #0]
 17357 0074 4C4B     		ldr	r3, .L13+8
 17358 0076 9A42     		cmp	r2, r3
 17359 0078 19D8     		bhi	.L7
 229:../StdPeripheralDriver/src/stm32f10x_i2c.c ****   {
 230:../StdPeripheralDriver/src/stm32f10x_i2c.c ****     /* Standard mode speed calculate */
 231:../StdPeripheralDriver/src/stm32f10x_i2c.c ****     result = (uint16_t)(pclk1 / (I2C_InitStruct->I2C_ClockSpeed << 1));
 17360              		.loc 1 231 0
 17361 007a 3B68     		ldr	r3, [r7, #0]
 17362 007c 1B68     		ldr	r3, [r3, #0]
 17363 007e 4FEA4303 		lsl	r3, r3, #1
 17364 0082 FA69     		ldr	r2, [r7, #28]
 17365 0084 B2FBF3F3 		udiv	r3, r2, r3
 17366 0088 BB84     		strh	r3, [r7, #36]	@ movhi
 232:../StdPeripheralDriver/src/stm32f10x_i2c.c ****     /* Test if CCR value is under 0x4*/
 233:../StdPeripheralDriver/src/stm32f10x_i2c.c ****     if (result < 0x04)
 17367              		.loc 1 233 0
 17368 008a BB8C     		ldrh	r3, [r7, #36]
 17369 008c 032B     		cmp	r3, #3
 17370 008e 02D8     		bhi	.L8
 234:../StdPeripheralDriver/src/stm32f10x_i2c.c ****     {
 235:../StdPeripheralDriver/src/stm32f10x_i2c.c ****       /* Set minimum allowed value */
 236:../StdPeripheralDriver/src/stm32f10x_i2c.c ****       result = 0x04;  
 17371              		.loc 1 236 0
 17372 0090 4FF00403 		mov	r3, #4
 17373 0094 BB84     		strh	r3, [r7, #36]	@ movhi
 17374              	.L8:
 237:../StdPeripheralDriver/src/stm32f10x_i2c.c ****     }
 238:../StdPeripheralDriver/src/stm32f10x_i2c.c ****     /* Set speed value for standard mode */
 239:../StdPeripheralDriver/src/stm32f10x_i2c.c ****     tmpreg |= result;	  
 17375              		.loc 1 239 0
 17376 0096 FA8C     		ldrh	r2, [r7, #38]	@ movhi
 17377 0098 BB8C     		ldrh	r3, [r7, #36]	@ movhi
 17378 009a 42EA0303 		orr	r3, r2, r3
 17379 009e FB84     		strh	r3, [r7, #38]	@ movhi
 240:../StdPeripheralDriver/src/stm32f10x_i2c.c ****     /* Set Maximum Rise Time for standard mode */
 241:../StdPeripheralDriver/src/stm32f10x_i2c.c ****     I2Cx->TRISE = freqrange + 1; 
 17380              		.loc 1 241 0
 17381 00a0 7B8C     		ldrh	r3, [r7, #34]	@ movhi
 17382 00a2 03F10103 		add	r3, r3, #1
 17383 00a6 9AB2     		uxth	r2, r3
 17384 00a8 7B68     		ldr	r3, [r7, #4]
 17385 00aa 1A84     		strh	r2, [r3, #32]	@ movhi
 17386 00ac 49E0     		b	.L9
 17387              	.L7:
 242:../StdPeripheralDriver/src/stm32f10x_i2c.c ****   }
 243:../StdPeripheralDriver/src/stm32f10x_i2c.c ****   /* Configure speed in fast mode */
 244:../StdPeripheralDriver/src/stm32f10x_i2c.c ****   else /*(I2C_InitStruct->I2C_ClockSpeed <= 400000)*/
 245:../StdPeripheralDriver/src/stm32f10x_i2c.c ****   {
 246:../StdPeripheralDriver/src/stm32f10x_i2c.c ****     if (I2C_InitStruct->I2C_DutyCycle == I2C_DutyCycle_2)
 17388              		.loc 1 246 0
 17389 00ae 3B68     		ldr	r3, [r7, #0]
 17390 00b0 DA88     		ldrh	r2, [r3, #6]
 17391 00b2 4BF6FF73 		movw	r3, #49151
 17392 00b6 9A42     		cmp	r2, r3
 17393 00b8 0AD1     		bne	.L10
 247:../StdPeripheralDriver/src/stm32f10x_i2c.c ****     {
 248:../StdPeripheralDriver/src/stm32f10x_i2c.c ****       /* Fast mode speed calculate: Tlow/Thigh = 2 */
 249:../StdPeripheralDriver/src/stm32f10x_i2c.c ****       result = (uint16_t)(pclk1 / (I2C_InitStruct->I2C_ClockSpeed * 3));
 17394              		.loc 1 249 0
 17395 00ba 3B68     		ldr	r3, [r7, #0]
 17396 00bc 1A68     		ldr	r2, [r3, #0]
 17397 00be 1346     		mov	r3, r2
 17398 00c0 4FEA4303 		lsl	r3, r3, #1
 17399 00c4 9B18     		adds	r3, r3, r2
 17400 00c6 FA69     		ldr	r2, [r7, #28]
 17401 00c8 B2FBF3F3 		udiv	r3, r2, r3
 17402 00cc BB84     		strh	r3, [r7, #36]	@ movhi
 17403 00ce 10E0     		b	.L11
 17404              	.L10:
 250:../StdPeripheralDriver/src/stm32f10x_i2c.c ****     }
 251:../StdPeripheralDriver/src/stm32f10x_i2c.c ****     else /*I2C_InitStruct->I2C_DutyCycle == I2C_DutyCycle_16_9*/
 252:../StdPeripheralDriver/src/stm32f10x_i2c.c ****     {
 253:../StdPeripheralDriver/src/stm32f10x_i2c.c ****       /* Fast mode speed calculate: Tlow/Thigh = 16/9 */
 254:../StdPeripheralDriver/src/stm32f10x_i2c.c ****       result = (uint16_t)(pclk1 / (I2C_InitStruct->I2C_ClockSpeed * 25));
 17405              		.loc 1 254 0
 17406 00d0 3B68     		ldr	r3, [r7, #0]
 17407 00d2 1A68     		ldr	r2, [r3, #0]
 17408 00d4 1346     		mov	r3, r2
 17409 00d6 4FEA8303 		lsl	r3, r3, #2
 17410 00da 9B18     		adds	r3, r3, r2
 17411 00dc 4FEA8302 		lsl	r2, r3, #2
 17412 00e0 9B18     		adds	r3, r3, r2
 17413 00e2 FA69     		ldr	r2, [r7, #28]
 17414 00e4 B2FBF3F3 		udiv	r3, r2, r3
 17415 00e8 BB84     		strh	r3, [r7, #36]	@ movhi
 255:../StdPeripheralDriver/src/stm32f10x_i2c.c ****       /* Set DUTY bit */
 256:../StdPeripheralDriver/src/stm32f10x_i2c.c ****       result |= I2C_DutyCycle_16_9;
 17416              		.loc 1 256 0
 17417 00ea BB8C     		ldrh	r3, [r7, #36]	@ movhi
 17418 00ec 43F48043 		orr	r3, r3, #16384
 17419 00f0 BB84     		strh	r3, [r7, #36]	@ movhi
 17420              	.L11:
 257:../StdPeripheralDriver/src/stm32f10x_i2c.c ****     }
 258:../StdPeripheralDriver/src/stm32f10x_i2c.c **** 
 259:../StdPeripheralDriver/src/stm32f10x_i2c.c ****     /* Test if CCR value is under 0x1*/
 260:../StdPeripheralDriver/src/stm32f10x_i2c.c ****     if ((result & CCR_CCR_Set) == 0)
 17421              		.loc 1 260 0
 17422 00f2 BB8C     		ldrh	r3, [r7, #36]
 17423 00f4 4FEA0353 		lsl	r3, r3, #20
 17424 00f8 4FEA1353 		lsr	r3, r3, #20
 17425 00fc 002B     		cmp	r3, #0
 17426 00fe 03D1     		bne	.L12
 261:../StdPeripheralDriver/src/stm32f10x_i2c.c ****     {
 262:../StdPeripheralDriver/src/stm32f10x_i2c.c ****       /* Set minimum allowed value */
 263:../StdPeripheralDriver/src/stm32f10x_i2c.c ****       result |= (uint16_t)0x0001;  
 17427              		.loc 1 263 0
 17428 0100 BB8C     		ldrh	r3, [r7, #36]	@ movhi
 17429 0102 43F00103 		orr	r3, r3, #1
 17430 0106 BB84     		strh	r3, [r7, #36]	@ movhi
 17431              	.L12:
 264:../StdPeripheralDriver/src/stm32f10x_i2c.c ****     }
 265:../StdPeripheralDriver/src/stm32f10x_i2c.c ****     /* Set speed value and set F/S bit for fast mode */
 266:../StdPeripheralDriver/src/stm32f10x_i2c.c ****     tmpreg |= (uint16_t)(result | CCR_FS_Set);
 17432              		.loc 1 266 0
 17433 0108 BA8C     		ldrh	r2, [r7, #36]	@ movhi
 17434 010a FB8C     		ldrh	r3, [r7, #38]	@ movhi
 17435 010c 42EA0303 		orr	r3, r2, r3
 17436 0110 9BB2     		uxth	r3, r3
 17437 0112 6FEA4343 		mvn	r3, r3, lsl #17
 17438 0116 6FEA5343 		mvn	r3, r3, lsr #17
 17439 011a FB84     		strh	r3, [r7, #38]	@ movhi
 267:../StdPeripheralDriver/src/stm32f10x_i2c.c ****     /* Set Maximum Rise Time for fast mode */
 268:../StdPeripheralDriver/src/stm32f10x_i2c.c ****     I2Cx->TRISE = (uint16_t)(((freqrange * (uint16_t)300) / (uint16_t)1000) + (uint16_t)1);  
 17440              		.loc 1 268 0
 17441 011c 7B8C     		ldrh	r3, [r7, #34]
 17442 011e 4FF49672 		mov	r2, #300
 17443 0122 02FB03F3 		mul	r3, r2, r3
 17444 0126 214A     		ldr	r2, .L13+12
 17445 0128 82FB0312 		smull	r1, r2, r2, r3
 17446 012c 4FEAA212 		asr	r2, r2, #6
 17447 0130 4FEAE373 		asr	r3, r3, #31
 17448 0134 D31A     		subs	r3, r2, r3
 17449 0136 9BB2     		uxth	r3, r3
 17450 0138 03F10103 		add	r3, r3, #1
 17451 013c 9AB2     		uxth	r2, r3
 17452 013e 7B68     		ldr	r3, [r7, #4]
 17453 0140 1A84     		strh	r2, [r3, #32]	@ movhi
 17454              	.L9:
 269:../StdPeripheralDriver/src/stm32f10x_i2c.c ****   }
 270:../StdPeripheralDriver/src/stm32f10x_i2c.c **** 
 271:../StdPeripheralDriver/src/stm32f10x_i2c.c ****   /* Write to I2Cx CCR */
 272:../StdPeripheralDriver/src/stm32f10x_i2c.c ****   I2Cx->CCR = tmpreg;
 17455              		.loc 1 272 0
 17456 0142 7B68     		ldr	r3, [r7, #4]
 17457 0144 FA8C     		ldrh	r2, [r7, #38]	@ movhi
 17458 0146 9A83     		strh	r2, [r3, #28]	@ movhi
 273:../StdPeripheralDriver/src/stm32f10x_i2c.c ****   /* Enable the selected I2C peripheral */
 274:../StdPeripheralDriver/src/stm32f10x_i2c.c ****   I2Cx->CR1 |= CR1_PE_Set;
 17459              		.loc 1 274 0
 17460 0148 7B68     		ldr	r3, [r7, #4]
 17461 014a 1B88     		ldrh	r3, [r3, #0]	@ movhi
 17462 014c 9BB2     		uxth	r3, r3
 17463 014e 43F00103 		orr	r3, r3, #1
 17464 0152 9AB2     		uxth	r2, r3
 17465 0154 7B68     		ldr	r3, [r7, #4]
 17466 0156 1A80     		strh	r2, [r3, #0]	@ movhi
 275:../StdPeripheralDriver/src/stm32f10x_i2c.c **** 
 276:../StdPeripheralDriver/src/stm32f10x_i2c.c **** /*---------------------------- I2Cx CR1 Configuration ------------------------*/
 277:../StdPeripheralDriver/src/stm32f10x_i2c.c ****   /* Get the I2Cx CR1 value */
 278:../StdPeripheralDriver/src/stm32f10x_i2c.c ****   tmpreg = I2Cx->CR1;
 17467              		.loc 1 278 0
 17468 0158 7B68     		ldr	r3, [r7, #4]
 17469 015a 1B88     		ldrh	r3, [r3, #0]	@ movhi
 17470 015c FB84     		strh	r3, [r7, #38]	@ movhi
 279:../StdPeripheralDriver/src/stm32f10x_i2c.c ****   /* Clear ACK, SMBTYPE and  SMBUS bits */
 280:../StdPeripheralDriver/src/stm32f10x_i2c.c ****   tmpreg &= CR1_CLEAR_Mask;
 17471              		.loc 1 280 0
 17472 015e FB8C     		ldrh	r3, [r7, #38]	@ movhi
 17473 0160 23F48063 		bic	r3, r3, #1024
 17474 0164 23F00A03 		bic	r3, r3, #10
 17475 0168 FB84     		strh	r3, [r7, #38]	@ movhi
 281:../StdPeripheralDriver/src/stm32f10x_i2c.c ****   /* Configure I2Cx: mode and acknowledgement */
 282:../StdPeripheralDriver/src/stm32f10x_i2c.c ****   /* Set SMBTYPE and SMBUS bits according to I2C_Mode value */
 283:../StdPeripheralDriver/src/stm32f10x_i2c.c ****   /* Set ACK bit according to I2C_Ack value */
 284:../StdPeripheralDriver/src/stm32f10x_i2c.c ****   tmpreg |= (uint16_t)((uint32_t)I2C_InitStruct->I2C_Mode | I2C_InitStruct->I2C_Ack);
 17476              		.loc 1 284 0
 17477 016a 3B68     		ldr	r3, [r7, #0]
 17478 016c 9A88     		ldrh	r2, [r3, #4]
 17479 016e 3B68     		ldr	r3, [r7, #0]
 17480 0170 5B89     		ldrh	r3, [r3, #10]
 17481 0172 42EA0303 		orr	r3, r2, r3
 17482 0176 9AB2     		uxth	r2, r3
 17483 0178 FB8C     		ldrh	r3, [r7, #38]	@ movhi
 17484 017a 42EA0303 		orr	r3, r2, r3
 17485 017e FB84     		strh	r3, [r7, #38]	@ movhi
 285:../StdPeripheralDriver/src/stm32f10x_i2c.c ****   /* Write to I2Cx CR1 */
 286:../StdPeripheralDriver/src/stm32f10x_i2c.c ****   I2Cx->CR1 = tmpreg;
 17486              		.loc 1 286 0
 17487 0180 7B68     		ldr	r3, [r7, #4]
 17488 0182 FA8C     		ldrh	r2, [r7, #38]	@ movhi
 17489 0184 1A80     		strh	r2, [r3, #0]	@ movhi
 287:../StdPeripheralDriver/src/stm32f10x_i2c.c **** 
 288:../StdPeripheralDriver/src/stm32f10x_i2c.c **** /*---------------------------- I2Cx OAR1 Configuration -----------------------*/
 289:../StdPeripheralDriver/src/stm32f10x_i2c.c ****   /* Set I2Cx Own Address1 and acknowledged address */
 290:../StdPeripheralDriver/src/stm32f10x_i2c.c ****   I2Cx->OAR1 = (I2C_InitStruct->I2C_AcknowledgedAddress | I2C_InitStruct->I2C_OwnAddress1);
 17490              		.loc 1 290 0
 17491 0186 3B68     		ldr	r3, [r7, #0]
 17492 0188 9A89     		ldrh	r2, [r3, #12]
 17493 018a 3B68     		ldr	r3, [r7, #0]
 17494 018c 1B89     		ldrh	r3, [r3, #8]
 17495 018e 42EA0303 		orr	r3, r2, r3
 17496 0192 9AB2     		uxth	r2, r3
 17497 0194 7B68     		ldr	r3, [r7, #4]
 17498 0196 1A81     		strh	r2, [r3, #8]	@ movhi
 291:../StdPeripheralDriver/src/stm32f10x_i2c.c **** }
 17499              		.loc 1 291 0
 17500 0198 07F12807 		add	r7, r7, #40
 17501 019c BD46     		mov	sp, r7
 17502 019e 80BD     		pop	{r7, pc}
 17503              	.L14:
 17504              		.align	2
 17505              	.L13:
 17506 01a0 00127A00 		.word	8000000
 17507 01a4 83DE1B43 		.word	1125899907
 17508 01a8 A0860100 		.word	100000
 17509 01ac D34D6210 		.word	274877907
 17510              		.cfi_endproc
 17511              	.LFE30:
 17513              		.section	.text.I2C_StructInit,"ax",%progbits
 17514              		.align	2
 17515              		.global	I2C_StructInit
 17516              		.thumb
 17517              		.thumb_func
 17519              	I2C_StructInit:
 17520              	.LFB31:
 292:../StdPeripheralDriver/src/stm32f10x_i2c.c **** 
 293:../StdPeripheralDriver/src/stm32f10x_i2c.c **** /**
 294:../StdPeripheralDriver/src/stm32f10x_i2c.c ****   * @brief  Fills each I2C_InitStruct member with its default value.
 295:../StdPeripheralDriver/src/stm32f10x_i2c.c ****   * @param  I2C_InitStruct: pointer to an I2C_InitTypeDef structure which will be initialized.
 296:../StdPeripheralDriver/src/stm32f10x_i2c.c ****   * @retval None
 297:../StdPeripheralDriver/src/stm32f10x_i2c.c ****   */
 298:../StdPeripheralDriver/src/stm32f10x_i2c.c **** void I2C_StructInit(I2C_InitTypeDef* I2C_InitStruct)
 299:../StdPeripheralDriver/src/stm32f10x_i2c.c **** {
 17521              		.loc 1 299 0
 17522              		.cfi_startproc
 17523              		@ args = 0, pretend = 0, frame = 8
 17524              		@ frame_needed = 1, uses_anonymous_args = 0
 17525              		@ link register save eliminated.
 17526 0000 80B4     		push	{r7}
 17527              	.LCFI6:
 17528              		.cfi_def_cfa_offset 4
 17529 0002 83B0     		sub	sp, sp, #12
 17530              	.LCFI7:
 17531              		.cfi_def_cfa_offset 16
 17532 0004 00AF     		add	r7, sp, #0
 17533              		.cfi_offset 7, -4
 17534              	.LCFI8:
 17535              		.cfi_def_cfa_register 7
 17536 0006 7860     		str	r0, [r7, #4]
 300:../StdPeripheralDriver/src/stm32f10x_i2c.c **** /*---------------- Reset I2C init structure parameters values ----------------*/
 301:../StdPeripheralDriver/src/stm32f10x_i2c.c ****   /* initialize the I2C_ClockSpeed member */
 302:../StdPeripheralDriver/src/stm32f10x_i2c.c ****   I2C_InitStruct->I2C_ClockSpeed = 5000;
 17537              		.loc 1 302 0
 17538 0008 7B68     		ldr	r3, [r7, #4]
 17539 000a 41F28832 		movw	r2, #5000
 17540 000e 1A60     		str	r2, [r3, #0]
 303:../StdPeripheralDriver/src/stm32f10x_i2c.c ****   /* Initialize the I2C_Mode member */
 304:../StdPeripheralDriver/src/stm32f10x_i2c.c ****   I2C_InitStruct->I2C_Mode = I2C_Mode_I2C;
 17541              		.loc 1 304 0
 17542 0010 7B68     		ldr	r3, [r7, #4]
 17543 0012 4FF00002 		mov	r2, #0
 17544 0016 9A80     		strh	r2, [r3, #4]	@ movhi
 305:../StdPeripheralDriver/src/stm32f10x_i2c.c ****   /* Initialize the I2C_DutyCycle member */
 306:../StdPeripheralDriver/src/stm32f10x_i2c.c ****   I2C_InitStruct->I2C_DutyCycle = I2C_DutyCycle_2;
 17545              		.loc 1 306 0
 17546 0018 7B68     		ldr	r3, [r7, #4]
 17547 001a 4BF6FF72 		movw	r2, #49151
 17548 001e DA80     		strh	r2, [r3, #6]	@ movhi
 307:../StdPeripheralDriver/src/stm32f10x_i2c.c ****   /* Initialize the I2C_OwnAddress1 member */
 308:../StdPeripheralDriver/src/stm32f10x_i2c.c ****   I2C_InitStruct->I2C_OwnAddress1 = 0;
 17549              		.loc 1 308 0
 17550 0020 7B68     		ldr	r3, [r7, #4]
 17551 0022 4FF00002 		mov	r2, #0
 17552 0026 1A81     		strh	r2, [r3, #8]	@ movhi
 309:../StdPeripheralDriver/src/stm32f10x_i2c.c ****   /* Initialize the I2C_Ack member */
 310:../StdPeripheralDriver/src/stm32f10x_i2c.c ****   I2C_InitStruct->I2C_Ack = I2C_Ack_Disable;
 17553              		.loc 1 310 0
 17554 0028 7B68     		ldr	r3, [r7, #4]
 17555 002a 4FF00002 		mov	r2, #0
 17556 002e 5A81     		strh	r2, [r3, #10]	@ movhi
 311:../StdPeripheralDriver/src/stm32f10x_i2c.c ****   /* Initialize the I2C_AcknowledgedAddress member */
 312:../StdPeripheralDriver/src/stm32f10x_i2c.c ****   I2C_InitStruct->I2C_AcknowledgedAddress = I2C_AcknowledgedAddress_7bit;
 17557              		.loc 1 312 0
 17558 0030 7B68     		ldr	r3, [r7, #4]
 17559 0032 4FF48042 		mov	r2, #16384
 17560 0036 9A81     		strh	r2, [r3, #12]	@ movhi
 313:../StdPeripheralDriver/src/stm32f10x_i2c.c **** }
 17561              		.loc 1 313 0
 17562 0038 07F10C07 		add	r7, r7, #12
 17563 003c BD46     		mov	sp, r7
 17564 003e 80BC     		pop	{r7}
 17565 0040 7047     		bx	lr
 17566              		.cfi_endproc
 17567              	.LFE31:
 17569 0042 00BF     		.section	.text.I2C_Cmd,"ax",%progbits
 17570              		.align	2
 17571              		.global	I2C_Cmd
 17572              		.thumb
 17573              		.thumb_func
 17575              	I2C_Cmd:
 17576              	.LFB32:
 314:../StdPeripheralDriver/src/stm32f10x_i2c.c **** 
 315:../StdPeripheralDriver/src/stm32f10x_i2c.c **** /**
 316:../StdPeripheralDriver/src/stm32f10x_i2c.c ****   * @brief  Enables or disables the specified I2C peripheral.
 317:../StdPeripheralDriver/src/stm32f10x_i2c.c ****   * @param  I2Cx: where x can be 1 or 2 to select the I2C peripheral.
 318:../StdPeripheralDriver/src/stm32f10x_i2c.c ****   * @param  NewState: new state of the I2Cx peripheral. 
 319:../StdPeripheralDriver/src/stm32f10x_i2c.c ****   *   This parameter can be: ENABLE or DISABLE.
 320:../StdPeripheralDriver/src/stm32f10x_i2c.c ****   * @retval None
 321:../StdPeripheralDriver/src/stm32f10x_i2c.c ****   */
 322:../StdPeripheralDriver/src/stm32f10x_i2c.c **** void I2C_Cmd(I2C_TypeDef* I2Cx, FunctionalState NewState)
 323:../StdPeripheralDriver/src/stm32f10x_i2c.c **** {
 17577              		.loc 1 323 0
 17578              		.cfi_startproc
 17579              		@ args = 0, pretend = 0, frame = 8
 17580              		@ frame_needed = 1, uses_anonymous_args = 0
 17581              		@ link register save eliminated.
 17582 0000 80B4     		push	{r7}
 17583              	.LCFI9:
 17584              		.cfi_def_cfa_offset 4
 17585 0002 83B0     		sub	sp, sp, #12
 17586              	.LCFI10:
 17587              		.cfi_def_cfa_offset 16
 17588 0004 00AF     		add	r7, sp, #0
 17589              		.cfi_offset 7, -4
 17590              	.LCFI11:
 17591              		.cfi_def_cfa_register 7
 17592 0006 7860     		str	r0, [r7, #4]
 17593 0008 0B46     		mov	r3, r1
 17594 000a FB70     		strb	r3, [r7, #3]
 324:../StdPeripheralDriver/src/stm32f10x_i2c.c ****   /* Check the parameters */
 325:../StdPeripheralDriver/src/stm32f10x_i2c.c ****   assert_param(IS_I2C_ALL_PERIPH(I2Cx));
 326:../StdPeripheralDriver/src/stm32f10x_i2c.c ****   assert_param(IS_FUNCTIONAL_STATE(NewState));
 327:../StdPeripheralDriver/src/stm32f10x_i2c.c ****   if (NewState != DISABLE)
 17595              		.loc 1 327 0
 17596 000c FB78     		ldrb	r3, [r7, #3]	@ zero_extendqisi2
 17597 000e 002B     		cmp	r3, #0
 17598 0010 08D0     		beq	.L17
 328:../StdPeripheralDriver/src/stm32f10x_i2c.c ****   {
 329:../StdPeripheralDriver/src/stm32f10x_i2c.c ****     /* Enable the selected I2C peripheral */
 330:../StdPeripheralDriver/src/stm32f10x_i2c.c ****     I2Cx->CR1 |= CR1_PE_Set;
 17599              		.loc 1 330 0
 17600 0012 7B68     		ldr	r3, [r7, #4]
 17601 0014 1B88     		ldrh	r3, [r3, #0]	@ movhi
 17602 0016 9BB2     		uxth	r3, r3
 17603 0018 43F00103 		orr	r3, r3, #1
 17604 001c 9AB2     		uxth	r2, r3
 17605 001e 7B68     		ldr	r3, [r7, #4]
 17606 0020 1A80     		strh	r2, [r3, #0]	@ movhi
 17607 0022 07E0     		b	.L16
 17608              	.L17:
 331:../StdPeripheralDriver/src/stm32f10x_i2c.c ****   }
 332:../StdPeripheralDriver/src/stm32f10x_i2c.c ****   else
 333:../StdPeripheralDriver/src/stm32f10x_i2c.c ****   {
 334:../StdPeripheralDriver/src/stm32f10x_i2c.c ****     /* Disable the selected I2C peripheral */
 335:../StdPeripheralDriver/src/stm32f10x_i2c.c ****     I2Cx->CR1 &= CR1_PE_Reset;
 17609              		.loc 1 335 0
 17610 0024 7B68     		ldr	r3, [r7, #4]
 17611 0026 1B88     		ldrh	r3, [r3, #0]	@ movhi
 17612 0028 9BB2     		uxth	r3, r3
 17613 002a 23F00103 		bic	r3, r3, #1
 17614 002e 9AB2     		uxth	r2, r3
 17615 0030 7B68     		ldr	r3, [r7, #4]
 17616 0032 1A80     		strh	r2, [r3, #0]	@ movhi
 17617              	.L16:
 336:../StdPeripheralDriver/src/stm32f10x_i2c.c ****   }
 337:../StdPeripheralDriver/src/stm32f10x_i2c.c **** }
 17618              		.loc 1 337 0
 17619 0034 07F10C07 		add	r7, r7, #12
 17620 0038 BD46     		mov	sp, r7
 17621 003a 80BC     		pop	{r7}
 17622 003c 7047     		bx	lr
 17623              		.cfi_endproc
 17624              	.LFE32:
 17626 003e 00BF     		.section	.text.I2C_DMACmd,"ax",%progbits
 17627              		.align	2
 17628              		.global	I2C_DMACmd
 17629              		.thumb
 17630              		.thumb_func
 17632              	I2C_DMACmd:
 17633              	.LFB33:
 338:../StdPeripheralDriver/src/stm32f10x_i2c.c **** 
 339:../StdPeripheralDriver/src/stm32f10x_i2c.c **** /**
 340:../StdPeripheralDriver/src/stm32f10x_i2c.c ****   * @brief  Enables or disables the specified I2C DMA requests.
 341:../StdPeripheralDriver/src/stm32f10x_i2c.c ****   * @param  I2Cx: where x can be 1 or 2 to select the I2C peripheral.
 342:../StdPeripheralDriver/src/stm32f10x_i2c.c ****   * @param  NewState: new state of the I2C DMA transfer.
 343:../StdPeripheralDriver/src/stm32f10x_i2c.c ****   *   This parameter can be: ENABLE or DISABLE.
 344:../StdPeripheralDriver/src/stm32f10x_i2c.c ****   * @retval None
 345:../StdPeripheralDriver/src/stm32f10x_i2c.c ****   */
 346:../StdPeripheralDriver/src/stm32f10x_i2c.c **** void I2C_DMACmd(I2C_TypeDef* I2Cx, FunctionalState NewState)
 347:../StdPeripheralDriver/src/stm32f10x_i2c.c **** {
 17634              		.loc 1 347 0
 17635              		.cfi_startproc
 17636              		@ args = 0, pretend = 0, frame = 8
 17637              		@ frame_needed = 1, uses_anonymous_args = 0
 17638              		@ link register save eliminated.
 17639 0000 80B4     		push	{r7}
 17640              	.LCFI12:
 17641              		.cfi_def_cfa_offset 4
 17642 0002 83B0     		sub	sp, sp, #12
 17643              	.LCFI13:
 17644              		.cfi_def_cfa_offset 16
 17645 0004 00AF     		add	r7, sp, #0
 17646              		.cfi_offset 7, -4
 17647              	.LCFI14:
 17648              		.cfi_def_cfa_register 7
 17649 0006 7860     		str	r0, [r7, #4]
 17650 0008 0B46     		mov	r3, r1
 17651 000a FB70     		strb	r3, [r7, #3]
 348:../StdPeripheralDriver/src/stm32f10x_i2c.c ****   /* Check the parameters */
 349:../StdPeripheralDriver/src/stm32f10x_i2c.c ****   assert_param(IS_I2C_ALL_PERIPH(I2Cx));
 350:../StdPeripheralDriver/src/stm32f10x_i2c.c ****   assert_param(IS_FUNCTIONAL_STATE(NewState));
 351:../StdPeripheralDriver/src/stm32f10x_i2c.c ****   if (NewState != DISABLE)
 17652              		.loc 1 351 0
 17653 000c FB78     		ldrb	r3, [r7, #3]	@ zero_extendqisi2
 17654 000e 002B     		cmp	r3, #0
 17655 0010 08D0     		beq	.L20
 352:../StdPeripheralDriver/src/stm32f10x_i2c.c ****   {
 353:../StdPeripheralDriver/src/stm32f10x_i2c.c ****     /* Enable the selected I2C DMA requests */
 354:../StdPeripheralDriver/src/stm32f10x_i2c.c ****     I2Cx->CR2 |= CR2_DMAEN_Set;
 17656              		.loc 1 354 0
 17657 0012 7B68     		ldr	r3, [r7, #4]
 17658 0014 9B88     		ldrh	r3, [r3, #4]	@ movhi
 17659 0016 9BB2     		uxth	r3, r3
 17660 0018 43F40063 		orr	r3, r3, #2048
 17661 001c 9AB2     		uxth	r2, r3
 17662 001e 7B68     		ldr	r3, [r7, #4]
 17663 0020 9A80     		strh	r2, [r3, #4]	@ movhi
 17664 0022 07E0     		b	.L19
 17665              	.L20:
 355:../StdPeripheralDriver/src/stm32f10x_i2c.c ****   }
 356:../StdPeripheralDriver/src/stm32f10x_i2c.c ****   else
 357:../StdPeripheralDriver/src/stm32f10x_i2c.c ****   {
 358:../StdPeripheralDriver/src/stm32f10x_i2c.c ****     /* Disable the selected I2C DMA requests */
 359:../StdPeripheralDriver/src/stm32f10x_i2c.c ****     I2Cx->CR2 &= CR2_DMAEN_Reset;
 17666              		.loc 1 359 0
 17667 0024 7B68     		ldr	r3, [r7, #4]
 17668 0026 9B88     		ldrh	r3, [r3, #4]	@ movhi
 17669 0028 9BB2     		uxth	r3, r3
 17670 002a 23F40063 		bic	r3, r3, #2048
 17671 002e 9AB2     		uxth	r2, r3
 17672 0030 7B68     		ldr	r3, [r7, #4]
 17673 0032 9A80     		strh	r2, [r3, #4]	@ movhi
 17674              	.L19:
 360:../StdPeripheralDriver/src/stm32f10x_i2c.c ****   }
 361:../StdPeripheralDriver/src/stm32f10x_i2c.c **** }
 17675              		.loc 1 361 0
 17676 0034 07F10C07 		add	r7, r7, #12
 17677 0038 BD46     		mov	sp, r7
 17678 003a 80BC     		pop	{r7}
 17679 003c 7047     		bx	lr
 17680              		.cfi_endproc
 17681              	.LFE33:
 17683 003e 00BF     		.section	.text.I2C_DMALastTransferCmd,"ax",%progbits
 17684              		.align	2
 17685              		.global	I2C_DMALastTransferCmd
 17686              		.thumb
 17687              		.thumb_func
 17689              	I2C_DMALastTransferCmd:
 17690              	.LFB34:
 362:../StdPeripheralDriver/src/stm32f10x_i2c.c **** 
 363:../StdPeripheralDriver/src/stm32f10x_i2c.c **** /**
 364:../StdPeripheralDriver/src/stm32f10x_i2c.c ****   * @brief  Specifies if the next DMA transfer will be the last one.
 365:../StdPeripheralDriver/src/stm32f10x_i2c.c ****   * @param  I2Cx: where x can be 1 or 2 to select the I2C peripheral.
 366:../StdPeripheralDriver/src/stm32f10x_i2c.c ****   * @param  NewState: new state of the I2C DMA last transfer.
 367:../StdPeripheralDriver/src/stm32f10x_i2c.c ****   *   This parameter can be: ENABLE or DISABLE.
 368:../StdPeripheralDriver/src/stm32f10x_i2c.c ****   * @retval None
 369:../StdPeripheralDriver/src/stm32f10x_i2c.c ****   */
 370:../StdPeripheralDriver/src/stm32f10x_i2c.c **** void I2C_DMALastTransferCmd(I2C_TypeDef* I2Cx, FunctionalState NewState)
 371:../StdPeripheralDriver/src/stm32f10x_i2c.c **** {
 17691              		.loc 1 371 0
 17692              		.cfi_startproc
 17693              		@ args = 0, pretend = 0, frame = 8
 17694              		@ frame_needed = 1, uses_anonymous_args = 0
 17695              		@ link register save eliminated.
 17696 0000 80B4     		push	{r7}
 17697              	.LCFI15:
 17698              		.cfi_def_cfa_offset 4
 17699 0002 83B0     		sub	sp, sp, #12
 17700              	.LCFI16:
 17701              		.cfi_def_cfa_offset 16
 17702 0004 00AF     		add	r7, sp, #0
 17703              		.cfi_offset 7, -4
 17704              	.LCFI17:
 17705              		.cfi_def_cfa_register 7
 17706 0006 7860     		str	r0, [r7, #4]
 17707 0008 0B46     		mov	r3, r1
 17708 000a FB70     		strb	r3, [r7, #3]
 372:../StdPeripheralDriver/src/stm32f10x_i2c.c ****   /* Check the parameters */
 373:../StdPeripheralDriver/src/stm32f10x_i2c.c ****   assert_param(IS_I2C_ALL_PERIPH(I2Cx));
 374:../StdPeripheralDriver/src/stm32f10x_i2c.c ****   assert_param(IS_FUNCTIONAL_STATE(NewState));
 375:../StdPeripheralDriver/src/stm32f10x_i2c.c ****   if (NewState != DISABLE)
 17709              		.loc 1 375 0
 17710 000c FB78     		ldrb	r3, [r7, #3]	@ zero_extendqisi2
 17711 000e 002B     		cmp	r3, #0
 17712 0010 08D0     		beq	.L23
 376:../StdPeripheralDriver/src/stm32f10x_i2c.c ****   {
 377:../StdPeripheralDriver/src/stm32f10x_i2c.c ****     /* Next DMA transfer is the last transfer */
 378:../StdPeripheralDriver/src/stm32f10x_i2c.c ****     I2Cx->CR2 |= CR2_LAST_Set;
 17713              		.loc 1 378 0
 17714 0012 7B68     		ldr	r3, [r7, #4]
 17715 0014 9B88     		ldrh	r3, [r3, #4]	@ movhi
 17716 0016 9BB2     		uxth	r3, r3
 17717 0018 43F48053 		orr	r3, r3, #4096
 17718 001c 9AB2     		uxth	r2, r3
 17719 001e 7B68     		ldr	r3, [r7, #4]
 17720 0020 9A80     		strh	r2, [r3, #4]	@ movhi
 17721 0022 07E0     		b	.L22
 17722              	.L23:
 379:../StdPeripheralDriver/src/stm32f10x_i2c.c ****   }
 380:../StdPeripheralDriver/src/stm32f10x_i2c.c ****   else
 381:../StdPeripheralDriver/src/stm32f10x_i2c.c ****   {
 382:../StdPeripheralDriver/src/stm32f10x_i2c.c ****     /* Next DMA transfer is not the last transfer */
 383:../StdPeripheralDriver/src/stm32f10x_i2c.c ****     I2Cx->CR2 &= CR2_LAST_Reset;
 17723              		.loc 1 383 0
 17724 0024 7B68     		ldr	r3, [r7, #4]
 17725 0026 9B88     		ldrh	r3, [r3, #4]	@ movhi
 17726 0028 9BB2     		uxth	r3, r3
 17727 002a 23F48053 		bic	r3, r3, #4096
 17728 002e 9AB2     		uxth	r2, r3
 17729 0030 7B68     		ldr	r3, [r7, #4]
 17730 0032 9A80     		strh	r2, [r3, #4]	@ movhi
 17731              	.L22:
 384:../StdPeripheralDriver/src/stm32f10x_i2c.c ****   }
 385:../StdPeripheralDriver/src/stm32f10x_i2c.c **** }
 17732              		.loc 1 385 0
 17733 0034 07F10C07 		add	r7, r7, #12
 17734 0038 BD46     		mov	sp, r7
 17735 003a 80BC     		pop	{r7}
 17736 003c 7047     		bx	lr
 17737              		.cfi_endproc
 17738              	.LFE34:
 17740 003e 00BF     		.section	.text.I2C_GenerateSTART,"ax",%progbits
 17741              		.align	2
 17742              		.global	I2C_GenerateSTART
 17743              		.thumb
 17744              		.thumb_func
 17746              	I2C_GenerateSTART:
 17747              	.LFB35:
 386:../StdPeripheralDriver/src/stm32f10x_i2c.c **** 
 387:../StdPeripheralDriver/src/stm32f10x_i2c.c **** /**
 388:../StdPeripheralDriver/src/stm32f10x_i2c.c ****   * @brief  Generates I2Cx communication START condition.
 389:../StdPeripheralDriver/src/stm32f10x_i2c.c ****   * @param  I2Cx: where x can be 1 or 2 to select the I2C peripheral.
 390:../StdPeripheralDriver/src/stm32f10x_i2c.c ****   * @param  NewState: new state of the I2C START condition generation.
 391:../StdPeripheralDriver/src/stm32f10x_i2c.c ****   *   This parameter can be: ENABLE or DISABLE.
 392:../StdPeripheralDriver/src/stm32f10x_i2c.c ****   * @retval None.
 393:../StdPeripheralDriver/src/stm32f10x_i2c.c ****   */
 394:../StdPeripheralDriver/src/stm32f10x_i2c.c **** void I2C_GenerateSTART(I2C_TypeDef* I2Cx, FunctionalState NewState)
 395:../StdPeripheralDriver/src/stm32f10x_i2c.c **** {
 17748              		.loc 1 395 0
 17749              		.cfi_startproc
 17750              		@ args = 0, pretend = 0, frame = 8
 17751              		@ frame_needed = 1, uses_anonymous_args = 0
 17752              		@ link register save eliminated.
 17753 0000 80B4     		push	{r7}
 17754              	.LCFI18:
 17755              		.cfi_def_cfa_offset 4
 17756 0002 83B0     		sub	sp, sp, #12
 17757              	.LCFI19:
 17758              		.cfi_def_cfa_offset 16
 17759 0004 00AF     		add	r7, sp, #0
 17760              		.cfi_offset 7, -4
 17761              	.LCFI20:
 17762              		.cfi_def_cfa_register 7
 17763 0006 7860     		str	r0, [r7, #4]
 17764 0008 0B46     		mov	r3, r1
 17765 000a FB70     		strb	r3, [r7, #3]
 396:../StdPeripheralDriver/src/stm32f10x_i2c.c ****   /* Check the parameters */
 397:../StdPeripheralDriver/src/stm32f10x_i2c.c ****   assert_param(IS_I2C_ALL_PERIPH(I2Cx));
 398:../StdPeripheralDriver/src/stm32f10x_i2c.c ****   assert_param(IS_FUNCTIONAL_STATE(NewState));
 399:../StdPeripheralDriver/src/stm32f10x_i2c.c ****   if (NewState != DISABLE)
 17766              		.loc 1 399 0
 17767 000c FB78     		ldrb	r3, [r7, #3]	@ zero_extendqisi2
 17768 000e 002B     		cmp	r3, #0
 17769 0010 08D0     		beq	.L26
 400:../StdPeripheralDriver/src/stm32f10x_i2c.c ****   {
 401:../StdPeripheralDriver/src/stm32f10x_i2c.c ****     /* Generate a START condition */
 402:../StdPeripheralDriver/src/stm32f10x_i2c.c ****     I2Cx->CR1 |= CR1_START_Set;
 17770              		.loc 1 402 0
 17771 0012 7B68     		ldr	r3, [r7, #4]
 17772 0014 1B88     		ldrh	r3, [r3, #0]	@ movhi
 17773 0016 9BB2     		uxth	r3, r3
 17774 0018 43F48073 		orr	r3, r3, #256
 17775 001c 9AB2     		uxth	r2, r3
 17776 001e 7B68     		ldr	r3, [r7, #4]
 17777 0020 1A80     		strh	r2, [r3, #0]	@ movhi
 17778 0022 07E0     		b	.L25
 17779              	.L26:
 403:../StdPeripheralDriver/src/stm32f10x_i2c.c ****   }
 404:../StdPeripheralDriver/src/stm32f10x_i2c.c ****   else
 405:../StdPeripheralDriver/src/stm32f10x_i2c.c ****   {
 406:../StdPeripheralDriver/src/stm32f10x_i2c.c ****     /* Disable the START condition generation */
 407:../StdPeripheralDriver/src/stm32f10x_i2c.c ****     I2Cx->CR1 &= CR1_START_Reset;
 17780              		.loc 1 407 0
 17781 0024 7B68     		ldr	r3, [r7, #4]
 17782 0026 1B88     		ldrh	r3, [r3, #0]	@ movhi
 17783 0028 9BB2     		uxth	r3, r3
 17784 002a 23F48073 		bic	r3, r3, #256
 17785 002e 9AB2     		uxth	r2, r3
 17786 0030 7B68     		ldr	r3, [r7, #4]
 17787 0032 1A80     		strh	r2, [r3, #0]	@ movhi
 17788              	.L25:
 408:../StdPeripheralDriver/src/stm32f10x_i2c.c ****   }
 409:../StdPeripheralDriver/src/stm32f10x_i2c.c **** }
 17789              		.loc 1 409 0
 17790 0034 07F10C07 		add	r7, r7, #12
 17791 0038 BD46     		mov	sp, r7
 17792 003a 80BC     		pop	{r7}
 17793 003c 7047     		bx	lr
 17794              		.cfi_endproc
 17795              	.LFE35:
 17797 003e 00BF     		.section	.text.I2C_GenerateSTOP,"ax",%progbits
 17798              		.align	2
 17799              		.global	I2C_GenerateSTOP
 17800              		.thumb
 17801              		.thumb_func
 17803              	I2C_GenerateSTOP:
 17804              	.LFB36:
 410:../StdPeripheralDriver/src/stm32f10x_i2c.c **** 
 411:../StdPeripheralDriver/src/stm32f10x_i2c.c **** /**
 412:../StdPeripheralDriver/src/stm32f10x_i2c.c ****   * @brief  Generates I2Cx communication STOP condition.
 413:../StdPeripheralDriver/src/stm32f10x_i2c.c ****   * @param  I2Cx: where x can be 1 or 2 to select the I2C peripheral.
 414:../StdPeripheralDriver/src/stm32f10x_i2c.c ****   * @param  NewState: new state of the I2C STOP condition generation.
 415:../StdPeripheralDriver/src/stm32f10x_i2c.c ****   *   This parameter can be: ENABLE or DISABLE.
 416:../StdPeripheralDriver/src/stm32f10x_i2c.c ****   * @retval None.
 417:../StdPeripheralDriver/src/stm32f10x_i2c.c ****   */
 418:../StdPeripheralDriver/src/stm32f10x_i2c.c **** void I2C_GenerateSTOP(I2C_TypeDef* I2Cx, FunctionalState NewState)
 419:../StdPeripheralDriver/src/stm32f10x_i2c.c **** {
 17805              		.loc 1 419 0
 17806              		.cfi_startproc
 17807              		@ args = 0, pretend = 0, frame = 8
 17808              		@ frame_needed = 1, uses_anonymous_args = 0
 17809              		@ link register save eliminated.
 17810 0000 80B4     		push	{r7}
 17811              	.LCFI21:
 17812              		.cfi_def_cfa_offset 4
 17813 0002 83B0     		sub	sp, sp, #12
 17814              	.LCFI22:
 17815              		.cfi_def_cfa_offset 16
 17816 0004 00AF     		add	r7, sp, #0
 17817              		.cfi_offset 7, -4
 17818              	.LCFI23:
 17819              		.cfi_def_cfa_register 7
 17820 0006 7860     		str	r0, [r7, #4]
 17821 0008 0B46     		mov	r3, r1
 17822 000a FB70     		strb	r3, [r7, #3]
 420:../StdPeripheralDriver/src/stm32f10x_i2c.c ****   /* Check the parameters */
 421:../StdPeripheralDriver/src/stm32f10x_i2c.c ****   assert_param(IS_I2C_ALL_PERIPH(I2Cx));
 422:../StdPeripheralDriver/src/stm32f10x_i2c.c ****   assert_param(IS_FUNCTIONAL_STATE(NewState));
 423:../StdPeripheralDriver/src/stm32f10x_i2c.c ****   if (NewState != DISABLE)
 17823              		.loc 1 423 0
 17824 000c FB78     		ldrb	r3, [r7, #3]	@ zero_extendqisi2
 17825 000e 002B     		cmp	r3, #0
 17826 0010 08D0     		beq	.L29
 424:../StdPeripheralDriver/src/stm32f10x_i2c.c ****   {
 425:../StdPeripheralDriver/src/stm32f10x_i2c.c ****     /* Generate a STOP condition */
 426:../StdPeripheralDriver/src/stm32f10x_i2c.c ****     I2Cx->CR1 |= CR1_STOP_Set;
 17827              		.loc 1 426 0
 17828 0012 7B68     		ldr	r3, [r7, #4]
 17829 0014 1B88     		ldrh	r3, [r3, #0]	@ movhi
 17830 0016 9BB2     		uxth	r3, r3
 17831 0018 43F40073 		orr	r3, r3, #512
 17832 001c 9AB2     		uxth	r2, r3
 17833 001e 7B68     		ldr	r3, [r7, #4]
 17834 0020 1A80     		strh	r2, [r3, #0]	@ movhi
 17835 0022 07E0     		b	.L28
 17836              	.L29:
 427:../StdPeripheralDriver/src/stm32f10x_i2c.c ****   }
 428:../StdPeripheralDriver/src/stm32f10x_i2c.c ****   else
 429:../StdPeripheralDriver/src/stm32f10x_i2c.c ****   {
 430:../StdPeripheralDriver/src/stm32f10x_i2c.c ****     /* Disable the STOP condition generation */
 431:../StdPeripheralDriver/src/stm32f10x_i2c.c ****     I2Cx->CR1 &= CR1_STOP_Reset;
 17837              		.loc 1 431 0
 17838 0024 7B68     		ldr	r3, [r7, #4]
 17839 0026 1B88     		ldrh	r3, [r3, #0]	@ movhi
 17840 0028 9BB2     		uxth	r3, r3
 17841 002a 23F40073 		bic	r3, r3, #512
 17842 002e 9AB2     		uxth	r2, r3
 17843 0030 7B68     		ldr	r3, [r7, #4]
 17844 0032 1A80     		strh	r2, [r3, #0]	@ movhi
 17845              	.L28:
 432:../StdPeripheralDriver/src/stm32f10x_i2c.c ****   }
 433:../StdPeripheralDriver/src/stm32f10x_i2c.c **** }
 17846              		.loc 1 433 0
 17847 0034 07F10C07 		add	r7, r7, #12
 17848 0038 BD46     		mov	sp, r7
 17849 003a 80BC     		pop	{r7}
 17850 003c 7047     		bx	lr
 17851              		.cfi_endproc
 17852              	.LFE36:
 17854 003e 00BF     		.section	.text.I2C_AcknowledgeConfig,"ax",%progbits
 17855              		.align	2
 17856              		.global	I2C_AcknowledgeConfig
 17857              		.thumb
 17858              		.thumb_func
 17860              	I2C_AcknowledgeConfig:
 17861              	.LFB37:
 434:../StdPeripheralDriver/src/stm32f10x_i2c.c **** 
 435:../StdPeripheralDriver/src/stm32f10x_i2c.c **** /**
 436:../StdPeripheralDriver/src/stm32f10x_i2c.c ****   * @brief  Enables or disables the specified I2C acknowledge feature.
 437:../StdPeripheralDriver/src/stm32f10x_i2c.c ****   * @param  I2Cx: where x can be 1 or 2 to select the I2C peripheral.
 438:../StdPeripheralDriver/src/stm32f10x_i2c.c ****   * @param  NewState: new state of the I2C Acknowledgement.
 439:../StdPeripheralDriver/src/stm32f10x_i2c.c ****   *   This parameter can be: ENABLE or DISABLE.
 440:../StdPeripheralDriver/src/stm32f10x_i2c.c ****   * @retval None.
 441:../StdPeripheralDriver/src/stm32f10x_i2c.c ****   */
 442:../StdPeripheralDriver/src/stm32f10x_i2c.c **** void I2C_AcknowledgeConfig(I2C_TypeDef* I2Cx, FunctionalState NewState)
 443:../StdPeripheralDriver/src/stm32f10x_i2c.c **** {
 17862              		.loc 1 443 0
 17863              		.cfi_startproc
 17864              		@ args = 0, pretend = 0, frame = 8
 17865              		@ frame_needed = 1, uses_anonymous_args = 0
 17866              		@ link register save eliminated.
 17867 0000 80B4     		push	{r7}
 17868              	.LCFI24:
 17869              		.cfi_def_cfa_offset 4
 17870 0002 83B0     		sub	sp, sp, #12
 17871              	.LCFI25:
 17872              		.cfi_def_cfa_offset 16
 17873 0004 00AF     		add	r7, sp, #0
 17874              		.cfi_offset 7, -4
 17875              	.LCFI26:
 17876              		.cfi_def_cfa_register 7
 17877 0006 7860     		str	r0, [r7, #4]
 17878 0008 0B46     		mov	r3, r1
 17879 000a FB70     		strb	r3, [r7, #3]
 444:../StdPeripheralDriver/src/stm32f10x_i2c.c ****   /* Check the parameters */
 445:../StdPeripheralDriver/src/stm32f10x_i2c.c ****   assert_param(IS_I2C_ALL_PERIPH(I2Cx));
 446:../StdPeripheralDriver/src/stm32f10x_i2c.c ****   assert_param(IS_FUNCTIONAL_STATE(NewState));
 447:../StdPeripheralDriver/src/stm32f10x_i2c.c ****   if (NewState != DISABLE)
 17880              		.loc 1 447 0
 17881 000c FB78     		ldrb	r3, [r7, #3]	@ zero_extendqisi2
 17882 000e 002B     		cmp	r3, #0
 17883 0010 08D0     		beq	.L32
 448:../StdPeripheralDriver/src/stm32f10x_i2c.c ****   {
 449:../StdPeripheralDriver/src/stm32f10x_i2c.c ****     /* Enable the acknowledgement */
 450:../StdPeripheralDriver/src/stm32f10x_i2c.c ****     I2Cx->CR1 |= CR1_ACK_Set;
 17884              		.loc 1 450 0
 17885 0012 7B68     		ldr	r3, [r7, #4]
 17886 0014 1B88     		ldrh	r3, [r3, #0]	@ movhi
 17887 0016 9BB2     		uxth	r3, r3
 17888 0018 43F48063 		orr	r3, r3, #1024
 17889 001c 9AB2     		uxth	r2, r3
 17890 001e 7B68     		ldr	r3, [r7, #4]
 17891 0020 1A80     		strh	r2, [r3, #0]	@ movhi
 17892 0022 07E0     		b	.L31
 17893              	.L32:
 451:../StdPeripheralDriver/src/stm32f10x_i2c.c ****   }
 452:../StdPeripheralDriver/src/stm32f10x_i2c.c ****   else
 453:../StdPeripheralDriver/src/stm32f10x_i2c.c ****   {
 454:../StdPeripheralDriver/src/stm32f10x_i2c.c ****     /* Disable the acknowledgement */
 455:../StdPeripheralDriver/src/stm32f10x_i2c.c ****     I2Cx->CR1 &= CR1_ACK_Reset;
 17894              		.loc 1 455 0
 17895 0024 7B68     		ldr	r3, [r7, #4]
 17896 0026 1B88     		ldrh	r3, [r3, #0]	@ movhi
 17897 0028 9BB2     		uxth	r3, r3
 17898 002a 23F48063 		bic	r3, r3, #1024
 17899 002e 9AB2     		uxth	r2, r3
 17900 0030 7B68     		ldr	r3, [r7, #4]
 17901 0032 1A80     		strh	r2, [r3, #0]	@ movhi
 17902              	.L31:
 456:../StdPeripheralDriver/src/stm32f10x_i2c.c ****   }
 457:../StdPeripheralDriver/src/stm32f10x_i2c.c **** }
 17903              		.loc 1 457 0
 17904 0034 07F10C07 		add	r7, r7, #12
 17905 0038 BD46     		mov	sp, r7
 17906 003a 80BC     		pop	{r7}
 17907 003c 7047     		bx	lr
 17908              		.cfi_endproc
 17909              	.LFE37:
 17911 003e 00BF     		.section	.text.I2C_OwnAddress2Config,"ax",%progbits
 17912              		.align	2
 17913              		.global	I2C_OwnAddress2Config
 17914              		.thumb
 17915              		.thumb_func
 17917              	I2C_OwnAddress2Config:
 17918              	.LFB38:
 458:../StdPeripheralDriver/src/stm32f10x_i2c.c **** 
 459:../StdPeripheralDriver/src/stm32f10x_i2c.c **** /**
 460:../StdPeripheralDriver/src/stm32f10x_i2c.c ****   * @brief  Configures the specified I2C own address2.
 461:../StdPeripheralDriver/src/stm32f10x_i2c.c ****   * @param  I2Cx: where x can be 1 or 2 to select the I2C peripheral.
 462:../StdPeripheralDriver/src/stm32f10x_i2c.c ****   * @param  Address: specifies the 7bit I2C own address2.
 463:../StdPeripheralDriver/src/stm32f10x_i2c.c ****   * @retval None.
 464:../StdPeripheralDriver/src/stm32f10x_i2c.c ****   */
 465:../StdPeripheralDriver/src/stm32f10x_i2c.c **** void I2C_OwnAddress2Config(I2C_TypeDef* I2Cx, uint8_t Address)
 466:../StdPeripheralDriver/src/stm32f10x_i2c.c **** {
 17919              		.loc 1 466 0
 17920              		.cfi_startproc
 17921              		@ args = 0, pretend = 0, frame = 16
 17922              		@ frame_needed = 1, uses_anonymous_args = 0
 17923              		@ link register save eliminated.
 17924 0000 80B4     		push	{r7}
 17925              	.LCFI27:
 17926              		.cfi_def_cfa_offset 4
 17927 0002 85B0     		sub	sp, sp, #20
 17928              	.LCFI28:
 17929              		.cfi_def_cfa_offset 24
 17930 0004 00AF     		add	r7, sp, #0
 17931              		.cfi_offset 7, -4
 17932              	.LCFI29:
 17933              		.cfi_def_cfa_register 7
 17934 0006 7860     		str	r0, [r7, #4]
 17935 0008 0B46     		mov	r3, r1
 17936 000a FB70     		strb	r3, [r7, #3]
 467:../StdPeripheralDriver/src/stm32f10x_i2c.c ****   uint16_t tmpreg = 0;
 17937              		.loc 1 467 0
 17938 000c 4FF00003 		mov	r3, #0
 17939 0010 FB81     		strh	r3, [r7, #14]	@ movhi
 468:../StdPeripheralDriver/src/stm32f10x_i2c.c **** 
 469:../StdPeripheralDriver/src/stm32f10x_i2c.c ****   /* Check the parameters */
 470:../StdPeripheralDriver/src/stm32f10x_i2c.c ****   assert_param(IS_I2C_ALL_PERIPH(I2Cx));
 471:../StdPeripheralDriver/src/stm32f10x_i2c.c **** 
 472:../StdPeripheralDriver/src/stm32f10x_i2c.c ****   /* Get the old register value */
 473:../StdPeripheralDriver/src/stm32f10x_i2c.c ****   tmpreg = I2Cx->OAR2;
 17940              		.loc 1 473 0
 17941 0012 7B68     		ldr	r3, [r7, #4]
 17942 0014 9B89     		ldrh	r3, [r3, #12]	@ movhi
 17943 0016 FB81     		strh	r3, [r7, #14]	@ movhi
 474:../StdPeripheralDriver/src/stm32f10x_i2c.c **** 
 475:../StdPeripheralDriver/src/stm32f10x_i2c.c ****   /* Reset I2Cx Own address2 bit [7:1] */
 476:../StdPeripheralDriver/src/stm32f10x_i2c.c ****   tmpreg &= OAR2_ADD2_Reset;
 17944              		.loc 1 476 0
 17945 0018 FB89     		ldrh	r3, [r7, #14]	@ movhi
 17946 001a 23F0FE03 		bic	r3, r3, #254
 17947 001e FB81     		strh	r3, [r7, #14]	@ movhi
 477:../StdPeripheralDriver/src/stm32f10x_i2c.c **** 
 478:../StdPeripheralDriver/src/stm32f10x_i2c.c ****   /* Set I2Cx Own address2 */
 479:../StdPeripheralDriver/src/stm32f10x_i2c.c ****   tmpreg |= (uint16_t)((uint16_t)Address & (uint16_t)0x00FE);
 17948              		.loc 1 479 0
 17949 0020 FB78     		ldrb	r3, [r7, #3]	@ zero_extendqisi2
 17950 0022 9BB2     		uxth	r3, r3
 17951 0024 03F0FE03 		and	r3, r3, #254
 17952 0028 9AB2     		uxth	r2, r3
 17953 002a FB89     		ldrh	r3, [r7, #14]
 17954 002c 42EA0303 		orr	r3, r2, r3
 17955 0030 9BB2     		uxth	r3, r3
 17956 0032 FB81     		strh	r3, [r7, #14]	@ movhi
 480:../StdPeripheralDriver/src/stm32f10x_i2c.c **** 
 481:../StdPeripheralDriver/src/stm32f10x_i2c.c ****   /* Store the new register value */
 482:../StdPeripheralDriver/src/stm32f10x_i2c.c ****   I2Cx->OAR2 = tmpreg;
 17957              		.loc 1 482 0
 17958 0034 7B68     		ldr	r3, [r7, #4]
 17959 0036 FA89     		ldrh	r2, [r7, #14]	@ movhi
 17960 0038 9A81     		strh	r2, [r3, #12]	@ movhi
 483:../StdPeripheralDriver/src/stm32f10x_i2c.c **** }
 17961              		.loc 1 483 0
 17962 003a 07F11407 		add	r7, r7, #20
 17963 003e BD46     		mov	sp, r7
 17964 0040 80BC     		pop	{r7}
 17965 0042 7047     		bx	lr
 17966              		.cfi_endproc
 17967              	.LFE38:
 17969              		.section	.text.I2C_DualAddressCmd,"ax",%progbits
 17970              		.align	2
 17971              		.global	I2C_DualAddressCmd
 17972              		.thumb
 17973              		.thumb_func
 17975              	I2C_DualAddressCmd:
 17976              	.LFB39:
 484:../StdPeripheralDriver/src/stm32f10x_i2c.c **** 
 485:../StdPeripheralDriver/src/stm32f10x_i2c.c **** /**
 486:../StdPeripheralDriver/src/stm32f10x_i2c.c ****   * @brief  Enables or disables the specified I2C dual addressing mode.
 487:../StdPeripheralDriver/src/stm32f10x_i2c.c ****   * @param  I2Cx: where x can be 1 or 2 to select the I2C peripheral.
 488:../StdPeripheralDriver/src/stm32f10x_i2c.c ****   * @param  NewState: new state of the I2C dual addressing mode.
 489:../StdPeripheralDriver/src/stm32f10x_i2c.c ****   *   This parameter can be: ENABLE or DISABLE.
 490:../StdPeripheralDriver/src/stm32f10x_i2c.c ****   * @retval None
 491:../StdPeripheralDriver/src/stm32f10x_i2c.c ****   */
 492:../StdPeripheralDriver/src/stm32f10x_i2c.c **** void I2C_DualAddressCmd(I2C_TypeDef* I2Cx, FunctionalState NewState)
 493:../StdPeripheralDriver/src/stm32f10x_i2c.c **** {
 17977              		.loc 1 493 0
 17978              		.cfi_startproc
 17979              		@ args = 0, pretend = 0, frame = 8
 17980              		@ frame_needed = 1, uses_anonymous_args = 0
 17981              		@ link register save eliminated.
 17982 0000 80B4     		push	{r7}
 17983              	.LCFI30:
 17984              		.cfi_def_cfa_offset 4
 17985 0002 83B0     		sub	sp, sp, #12
 17986              	.LCFI31:
 17987              		.cfi_def_cfa_offset 16
 17988 0004 00AF     		add	r7, sp, #0
 17989              		.cfi_offset 7, -4
 17990              	.LCFI32:
 17991              		.cfi_def_cfa_register 7
 17992 0006 7860     		str	r0, [r7, #4]
 17993 0008 0B46     		mov	r3, r1
 17994 000a FB70     		strb	r3, [r7, #3]
 494:../StdPeripheralDriver/src/stm32f10x_i2c.c ****   /* Check the parameters */
 495:../StdPeripheralDriver/src/stm32f10x_i2c.c ****   assert_param(IS_I2C_ALL_PERIPH(I2Cx));
 496:../StdPeripheralDriver/src/stm32f10x_i2c.c ****   assert_param(IS_FUNCTIONAL_STATE(NewState));
 497:../StdPeripheralDriver/src/stm32f10x_i2c.c ****   if (NewState != DISABLE)
 17995              		.loc 1 497 0
 17996 000c FB78     		ldrb	r3, [r7, #3]	@ zero_extendqisi2
 17997 000e 002B     		cmp	r3, #0
 17998 0010 08D0     		beq	.L36
 498:../StdPeripheralDriver/src/stm32f10x_i2c.c ****   {
 499:../StdPeripheralDriver/src/stm32f10x_i2c.c ****     /* Enable dual addressing mode */
 500:../StdPeripheralDriver/src/stm32f10x_i2c.c ****     I2Cx->OAR2 |= OAR2_ENDUAL_Set;
 17999              		.loc 1 500 0
 18000 0012 7B68     		ldr	r3, [r7, #4]
 18001 0014 9B89     		ldrh	r3, [r3, #12]	@ movhi
 18002 0016 9BB2     		uxth	r3, r3
 18003 0018 43F00103 		orr	r3, r3, #1
 18004 001c 9AB2     		uxth	r2, r3
 18005 001e 7B68     		ldr	r3, [r7, #4]
 18006 0020 9A81     		strh	r2, [r3, #12]	@ movhi
 18007 0022 07E0     		b	.L35
 18008              	.L36:
 501:../StdPeripheralDriver/src/stm32f10x_i2c.c ****   }
 502:../StdPeripheralDriver/src/stm32f10x_i2c.c ****   else
 503:../StdPeripheralDriver/src/stm32f10x_i2c.c ****   {
 504:../StdPeripheralDriver/src/stm32f10x_i2c.c ****     /* Disable dual addressing mode */
 505:../StdPeripheralDriver/src/stm32f10x_i2c.c ****     I2Cx->OAR2 &= OAR2_ENDUAL_Reset;
 18009              		.loc 1 505 0
 18010 0024 7B68     		ldr	r3, [r7, #4]
 18011 0026 9B89     		ldrh	r3, [r3, #12]	@ movhi
 18012 0028 9BB2     		uxth	r3, r3
 18013 002a 23F00103 		bic	r3, r3, #1
 18014 002e 9AB2     		uxth	r2, r3
 18015 0030 7B68     		ldr	r3, [r7, #4]
 18016 0032 9A81     		strh	r2, [r3, #12]	@ movhi
 18017              	.L35:
 506:../StdPeripheralDriver/src/stm32f10x_i2c.c ****   }
 507:../StdPeripheralDriver/src/stm32f10x_i2c.c **** }
 18018              		.loc 1 507 0
 18019 0034 07F10C07 		add	r7, r7, #12
 18020 0038 BD46     		mov	sp, r7
 18021 003a 80BC     		pop	{r7}
 18022 003c 7047     		bx	lr
 18023              		.cfi_endproc
 18024              	.LFE39:
 18026 003e 00BF     		.section	.text.I2C_GeneralCallCmd,"ax",%progbits
 18027              		.align	2
 18028              		.global	I2C_GeneralCallCmd
 18029              		.thumb
 18030              		.thumb_func
 18032              	I2C_GeneralCallCmd:
 18033              	.LFB40:
 508:../StdPeripheralDriver/src/stm32f10x_i2c.c **** 
 509:../StdPeripheralDriver/src/stm32f10x_i2c.c **** /**
 510:../StdPeripheralDriver/src/stm32f10x_i2c.c ****   * @brief  Enables or disables the specified I2C general call feature.
 511:../StdPeripheralDriver/src/stm32f10x_i2c.c ****   * @param  I2Cx: where x can be 1 or 2 to select the I2C peripheral.
 512:../StdPeripheralDriver/src/stm32f10x_i2c.c ****   * @param  NewState: new state of the I2C General call.
 513:../StdPeripheralDriver/src/stm32f10x_i2c.c ****   *   This parameter can be: ENABLE or DISABLE.
 514:../StdPeripheralDriver/src/stm32f10x_i2c.c ****   * @retval None
 515:../StdPeripheralDriver/src/stm32f10x_i2c.c ****   */
 516:../StdPeripheralDriver/src/stm32f10x_i2c.c **** void I2C_GeneralCallCmd(I2C_TypeDef* I2Cx, FunctionalState NewState)
 517:../StdPeripheralDriver/src/stm32f10x_i2c.c **** {
 18034              		.loc 1 517 0
 18035              		.cfi_startproc
 18036              		@ args = 0, pretend = 0, frame = 8
 18037              		@ frame_needed = 1, uses_anonymous_args = 0
 18038              		@ link register save eliminated.
 18039 0000 80B4     		push	{r7}
 18040              	.LCFI33:
 18041              		.cfi_def_cfa_offset 4
 18042 0002 83B0     		sub	sp, sp, #12
 18043              	.LCFI34:
 18044              		.cfi_def_cfa_offset 16
 18045 0004 00AF     		add	r7, sp, #0
 18046              		.cfi_offset 7, -4
 18047              	.LCFI35:
 18048              		.cfi_def_cfa_register 7
 18049 0006 7860     		str	r0, [r7, #4]
 18050 0008 0B46     		mov	r3, r1
 18051 000a FB70     		strb	r3, [r7, #3]
 518:../StdPeripheralDriver/src/stm32f10x_i2c.c ****   /* Check the parameters */
 519:../StdPeripheralDriver/src/stm32f10x_i2c.c ****   assert_param(IS_I2C_ALL_PERIPH(I2Cx));
 520:../StdPeripheralDriver/src/stm32f10x_i2c.c ****   assert_param(IS_FUNCTIONAL_STATE(NewState));
 521:../StdPeripheralDriver/src/stm32f10x_i2c.c ****   if (NewState != DISABLE)
 18052              		.loc 1 521 0
 18053 000c FB78     		ldrb	r3, [r7, #3]	@ zero_extendqisi2
 18054 000e 002B     		cmp	r3, #0
 18055 0010 08D0     		beq	.L39
 522:../StdPeripheralDriver/src/stm32f10x_i2c.c ****   {
 523:../StdPeripheralDriver/src/stm32f10x_i2c.c ****     /* Enable generall call */
 524:../StdPeripheralDriver/src/stm32f10x_i2c.c ****     I2Cx->CR1 |= CR1_ENGC_Set;
 18056              		.loc 1 524 0
 18057 0012 7B68     		ldr	r3, [r7, #4]
 18058 0014 1B88     		ldrh	r3, [r3, #0]	@ movhi
 18059 0016 9BB2     		uxth	r3, r3
 18060 0018 43F04003 		orr	r3, r3, #64
 18061 001c 9AB2     		uxth	r2, r3
 18062 001e 7B68     		ldr	r3, [r7, #4]
 18063 0020 1A80     		strh	r2, [r3, #0]	@ movhi
 18064 0022 07E0     		b	.L38
 18065              	.L39:
 525:../StdPeripheralDriver/src/stm32f10x_i2c.c ****   }
 526:../StdPeripheralDriver/src/stm32f10x_i2c.c ****   else
 527:../StdPeripheralDriver/src/stm32f10x_i2c.c ****   {
 528:../StdPeripheralDriver/src/stm32f10x_i2c.c ****     /* Disable generall call */
 529:../StdPeripheralDriver/src/stm32f10x_i2c.c ****     I2Cx->CR1 &= CR1_ENGC_Reset;
 18066              		.loc 1 529 0
 18067 0024 7B68     		ldr	r3, [r7, #4]
 18068 0026 1B88     		ldrh	r3, [r3, #0]	@ movhi
 18069 0028 9BB2     		uxth	r3, r3
 18070 002a 23F04003 		bic	r3, r3, #64
 18071 002e 9AB2     		uxth	r2, r3
 18072 0030 7B68     		ldr	r3, [r7, #4]
 18073 0032 1A80     		strh	r2, [r3, #0]	@ movhi
 18074              	.L38:
 530:../StdPeripheralDriver/src/stm32f10x_i2c.c ****   }
 531:../StdPeripheralDriver/src/stm32f10x_i2c.c **** }
 18075              		.loc 1 531 0
 18076 0034 07F10C07 		add	r7, r7, #12
 18077 0038 BD46     		mov	sp, r7
 18078 003a 80BC     		pop	{r7}
 18079 003c 7047     		bx	lr
 18080              		.cfi_endproc
 18081              	.LFE40:
 18083 003e 00BF     		.section	.text.I2C_ITConfig,"ax",%progbits
 18084              		.align	2
 18085              		.global	I2C_ITConfig
 18086              		.thumb
 18087              		.thumb_func
 18089              	I2C_ITConfig:
 18090              	.LFB41:
 532:../StdPeripheralDriver/src/stm32f10x_i2c.c **** 
 533:../StdPeripheralDriver/src/stm32f10x_i2c.c **** /**
 534:../StdPeripheralDriver/src/stm32f10x_i2c.c ****   * @brief  Enables or disables the specified I2C interrupts.
 535:../StdPeripheralDriver/src/stm32f10x_i2c.c ****   * @param  I2Cx: where x can be 1 or 2 to select the I2C peripheral.
 536:../StdPeripheralDriver/src/stm32f10x_i2c.c ****   * @param  I2C_IT: specifies the I2C interrupts sources to be enabled or disabled. 
 537:../StdPeripheralDriver/src/stm32f10x_i2c.c ****   *   This parameter can be any combination of the following values:
 538:../StdPeripheralDriver/src/stm32f10x_i2c.c ****   *     @arg I2C_IT_BUF: Buffer interrupt mask
 539:../StdPeripheralDriver/src/stm32f10x_i2c.c ****   *     @arg I2C_IT_EVT: Event interrupt mask
 540:../StdPeripheralDriver/src/stm32f10x_i2c.c ****   *     @arg I2C_IT_ERR: Error interrupt mask
 541:../StdPeripheralDriver/src/stm32f10x_i2c.c ****   * @param  NewState: new state of the specified I2C interrupts.
 542:../StdPeripheralDriver/src/stm32f10x_i2c.c ****   *   This parameter can be: ENABLE or DISABLE.
 543:../StdPeripheralDriver/src/stm32f10x_i2c.c ****   * @retval None
 544:../StdPeripheralDriver/src/stm32f10x_i2c.c ****   */
 545:../StdPeripheralDriver/src/stm32f10x_i2c.c **** void I2C_ITConfig(I2C_TypeDef* I2Cx, uint16_t I2C_IT, FunctionalState NewState)
 546:../StdPeripheralDriver/src/stm32f10x_i2c.c **** {
 18091              		.loc 1 546 0
 18092              		.cfi_startproc
 18093              		@ args = 0, pretend = 0, frame = 8
 18094              		@ frame_needed = 1, uses_anonymous_args = 0
 18095              		@ link register save eliminated.
 18096 0000 80B4     		push	{r7}
 18097              	.LCFI36:
 18098              		.cfi_def_cfa_offset 4
 18099 0002 83B0     		sub	sp, sp, #12
 18100              	.LCFI37:
 18101              		.cfi_def_cfa_offset 16
 18102 0004 00AF     		add	r7, sp, #0
 18103              		.cfi_offset 7, -4
 18104              	.LCFI38:
 18105              		.cfi_def_cfa_register 7
 18106 0006 7860     		str	r0, [r7, #4]
 18107 0008 1346     		mov	r3, r2
 18108 000a 0A46     		mov	r2, r1	@ movhi
 18109 000c 7A80     		strh	r2, [r7, #2]	@ movhi
 18110 000e 7B70     		strb	r3, [r7, #1]
 547:../StdPeripheralDriver/src/stm32f10x_i2c.c ****   /* Check the parameters */
 548:../StdPeripheralDriver/src/stm32f10x_i2c.c ****   assert_param(IS_I2C_ALL_PERIPH(I2Cx));
 549:../StdPeripheralDriver/src/stm32f10x_i2c.c ****   assert_param(IS_FUNCTIONAL_STATE(NewState));
 550:../StdPeripheralDriver/src/stm32f10x_i2c.c ****   assert_param(IS_I2C_CONFIG_IT(I2C_IT));
 551:../StdPeripheralDriver/src/stm32f10x_i2c.c ****   
 552:../StdPeripheralDriver/src/stm32f10x_i2c.c ****   if (NewState != DISABLE)
 18111              		.loc 1 552 0
 18112 0010 7B78     		ldrb	r3, [r7, #1]	@ zero_extendqisi2
 18113 0012 002B     		cmp	r3, #0
 18114 0014 09D0     		beq	.L42
 553:../StdPeripheralDriver/src/stm32f10x_i2c.c ****   {
 554:../StdPeripheralDriver/src/stm32f10x_i2c.c ****     /* Enable the selected I2C interrupts */
 555:../StdPeripheralDriver/src/stm32f10x_i2c.c ****     I2Cx->CR2 |= I2C_IT;
 18115              		.loc 1 555 0
 18116 0016 7B68     		ldr	r3, [r7, #4]
 18117 0018 9B88     		ldrh	r3, [r3, #4]	@ movhi
 18118 001a 9AB2     		uxth	r2, r3
 18119 001c 7B88     		ldrh	r3, [r7, #2]	@ movhi
 18120 001e 42EA0303 		orr	r3, r2, r3
 18121 0022 9AB2     		uxth	r2, r3
 18122 0024 7B68     		ldr	r3, [r7, #4]
 18123 0026 9A80     		strh	r2, [r3, #4]	@ movhi
 18124 0028 0BE0     		b	.L41
 18125              	.L42:
 556:../StdPeripheralDriver/src/stm32f10x_i2c.c ****   }
 557:../StdPeripheralDriver/src/stm32f10x_i2c.c ****   else
 558:../StdPeripheralDriver/src/stm32f10x_i2c.c ****   {
 559:../StdPeripheralDriver/src/stm32f10x_i2c.c ****     /* Disable the selected I2C interrupts */
 560:../StdPeripheralDriver/src/stm32f10x_i2c.c ****     I2Cx->CR2 &= (uint16_t)~I2C_IT;
 18126              		.loc 1 560 0
 18127 002a 7B68     		ldr	r3, [r7, #4]
 18128 002c 9B88     		ldrh	r3, [r3, #4]	@ movhi
 18129 002e 9AB2     		uxth	r2, r3
 18130 0030 7B88     		ldrh	r3, [r7, #2]	@ movhi
 18131 0032 6FEA0303 		mvn	r3, r3
 18132 0036 9BB2     		uxth	r3, r3
 18133 0038 02EA0303 		and	r3, r2, r3
 18134 003c 9AB2     		uxth	r2, r3
 18135 003e 7B68     		ldr	r3, [r7, #4]
 18136 0040 9A80     		strh	r2, [r3, #4]	@ movhi
 18137              	.L41:
 561:../StdPeripheralDriver/src/stm32f10x_i2c.c ****   }
 562:../StdPeripheralDriver/src/stm32f10x_i2c.c **** }
 18138              		.loc 1 562 0
 18139 0042 07F10C07 		add	r7, r7, #12
 18140 0046 BD46     		mov	sp, r7
 18141 0048 80BC     		pop	{r7}
 18142 004a 7047     		bx	lr
 18143              		.cfi_endproc
 18144              	.LFE41:
 18146              		.section	.text.I2C_SendData,"ax",%progbits
 18147              		.align	2
 18148              		.global	I2C_SendData
 18149              		.thumb
 18150              		.thumb_func
 18152              	I2C_SendData:
 18153              	.LFB42:
 563:../StdPeripheralDriver/src/stm32f10x_i2c.c **** 
 564:../StdPeripheralDriver/src/stm32f10x_i2c.c **** /**
 565:../StdPeripheralDriver/src/stm32f10x_i2c.c ****   * @brief  Sends a data byte through the I2Cx peripheral.
 566:../StdPeripheralDriver/src/stm32f10x_i2c.c ****   * @param  I2Cx: where x can be 1 or 2 to select the I2C peripheral.
 567:../StdPeripheralDriver/src/stm32f10x_i2c.c ****   * @param  Data: Byte to be transmitted..
 568:../StdPeripheralDriver/src/stm32f10x_i2c.c ****   * @retval None
 569:../StdPeripheralDriver/src/stm32f10x_i2c.c ****   */
 570:../StdPeripheralDriver/src/stm32f10x_i2c.c **** void I2C_SendData(I2C_TypeDef* I2Cx, uint8_t Data)
 571:../StdPeripheralDriver/src/stm32f10x_i2c.c **** {
 18154              		.loc 1 571 0
 18155              		.cfi_startproc
 18156              		@ args = 0, pretend = 0, frame = 8
 18157              		@ frame_needed = 1, uses_anonymous_args = 0
 18158              		@ link register save eliminated.
 18159 0000 80B4     		push	{r7}
 18160              	.LCFI39:
 18161              		.cfi_def_cfa_offset 4
 18162 0002 83B0     		sub	sp, sp, #12
 18163              	.LCFI40:
 18164              		.cfi_def_cfa_offset 16
 18165 0004 00AF     		add	r7, sp, #0
 18166              		.cfi_offset 7, -4
 18167              	.LCFI41:
 18168              		.cfi_def_cfa_register 7
 18169 0006 7860     		str	r0, [r7, #4]
 18170 0008 0B46     		mov	r3, r1
 18171 000a FB70     		strb	r3, [r7, #3]
 572:../StdPeripheralDriver/src/stm32f10x_i2c.c ****   /* Check the parameters */
 573:../StdPeripheralDriver/src/stm32f10x_i2c.c ****   assert_param(IS_I2C_ALL_PERIPH(I2Cx));
 574:../StdPeripheralDriver/src/stm32f10x_i2c.c ****   /* Write in the DR register the data to be sent */
 575:../StdPeripheralDriver/src/stm32f10x_i2c.c ****   I2Cx->DR = Data;
 18172              		.loc 1 575 0
 18173 000c FB78     		ldrb	r3, [r7, #3]	@ zero_extendqisi2
 18174 000e 9AB2     		uxth	r2, r3
 18175 0010 7B68     		ldr	r3, [r7, #4]
 18176 0012 1A82     		strh	r2, [r3, #16]	@ movhi
 576:../StdPeripheralDriver/src/stm32f10x_i2c.c **** }
 18177              		.loc 1 576 0
 18178 0014 07F10C07 		add	r7, r7, #12
 18179 0018 BD46     		mov	sp, r7
 18180 001a 80BC     		pop	{r7}
 18181 001c 7047     		bx	lr
 18182              		.cfi_endproc
 18183              	.LFE42:
 18185 001e 00BF     		.section	.text.I2C_ReceiveData,"ax",%progbits
 18186              		.align	2
 18187              		.global	I2C_ReceiveData
 18188              		.thumb
 18189              		.thumb_func
 18191              	I2C_ReceiveData:
 18192              	.LFB43:
 577:../StdPeripheralDriver/src/stm32f10x_i2c.c **** 
 578:../StdPeripheralDriver/src/stm32f10x_i2c.c **** /**
 579:../StdPeripheralDriver/src/stm32f10x_i2c.c ****   * @brief  Returns the most recent received data by the I2Cx peripheral.
 580:../StdPeripheralDriver/src/stm32f10x_i2c.c ****   * @param  I2Cx: where x can be 1 or 2 to select the I2C peripheral.
 581:../StdPeripheralDriver/src/stm32f10x_i2c.c ****   * @retval The value of the received data.
 582:../StdPeripheralDriver/src/stm32f10x_i2c.c ****   */
 583:../StdPeripheralDriver/src/stm32f10x_i2c.c **** uint8_t I2C_ReceiveData(I2C_TypeDef* I2Cx)
 584:../StdPeripheralDriver/src/stm32f10x_i2c.c **** {
 18193              		.loc 1 584 0
 18194              		.cfi_startproc
 18195              		@ args = 0, pretend = 0, frame = 8
 18196              		@ frame_needed = 1, uses_anonymous_args = 0
 18197              		@ link register save eliminated.
 18198 0000 80B4     		push	{r7}
 18199              	.LCFI42:
 18200              		.cfi_def_cfa_offset 4
 18201 0002 83B0     		sub	sp, sp, #12
 18202              	.LCFI43:
 18203              		.cfi_def_cfa_offset 16
 18204 0004 00AF     		add	r7, sp, #0
 18205              		.cfi_offset 7, -4
 18206              	.LCFI44:
 18207              		.cfi_def_cfa_register 7
 18208 0006 7860     		str	r0, [r7, #4]
 585:../StdPeripheralDriver/src/stm32f10x_i2c.c ****   /* Check the parameters */
 586:../StdPeripheralDriver/src/stm32f10x_i2c.c ****   assert_param(IS_I2C_ALL_PERIPH(I2Cx));
 587:../StdPeripheralDriver/src/stm32f10x_i2c.c ****   /* Return the data in the DR register */
 588:../StdPeripheralDriver/src/stm32f10x_i2c.c ****   return (uint8_t)I2Cx->DR;
 18209              		.loc 1 588 0
 18210 0008 7B68     		ldr	r3, [r7, #4]
 18211 000a 1B8A     		ldrh	r3, [r3, #16]	@ movhi
 18212 000c 9BB2     		uxth	r3, r3
 18213 000e DBB2     		uxtb	r3, r3
 589:../StdPeripheralDriver/src/stm32f10x_i2c.c **** }
 18214              		.loc 1 589 0
 18215 0010 1846     		mov	r0, r3
 18216 0012 07F10C07 		add	r7, r7, #12
 18217 0016 BD46     		mov	sp, r7
 18218 0018 80BC     		pop	{r7}
 18219 001a 7047     		bx	lr
 18220              		.cfi_endproc
 18221              	.LFE43:
 18223              		.section	.text.I2C_Send7bitAddress,"ax",%progbits
 18224              		.align	2
 18225              		.global	I2C_Send7bitAddress
 18226              		.thumb
 18227              		.thumb_func
 18229              	I2C_Send7bitAddress:
 18230              	.LFB44:
 590:../StdPeripheralDriver/src/stm32f10x_i2c.c **** 
 591:../StdPeripheralDriver/src/stm32f10x_i2c.c **** /**
 592:../StdPeripheralDriver/src/stm32f10x_i2c.c ****   * @brief  Transmits the address byte to select the slave device.
 593:../StdPeripheralDriver/src/stm32f10x_i2c.c ****   * @param  I2Cx: where x can be 1 or 2 to select the I2C peripheral.
 594:../StdPeripheralDriver/src/stm32f10x_i2c.c ****   * @param  Address: specifies the slave address which will be transmitted
 595:../StdPeripheralDriver/src/stm32f10x_i2c.c ****   * @param  I2C_Direction: specifies whether the I2C device will be a
 596:../StdPeripheralDriver/src/stm32f10x_i2c.c ****   *   Transmitter or a Receiver. This parameter can be one of the following values
 597:../StdPeripheralDriver/src/stm32f10x_i2c.c ****   *     @arg I2C_Direction_Transmitter: Transmitter mode
 598:../StdPeripheralDriver/src/stm32f10x_i2c.c ****   *     @arg I2C_Direction_Receiver: Receiver mode
 599:../StdPeripheralDriver/src/stm32f10x_i2c.c ****   * @retval None.
 600:../StdPeripheralDriver/src/stm32f10x_i2c.c ****   */
 601:../StdPeripheralDriver/src/stm32f10x_i2c.c **** void I2C_Send7bitAddress(I2C_TypeDef* I2Cx, uint8_t Address, uint8_t I2C_Direction)
 602:../StdPeripheralDriver/src/stm32f10x_i2c.c **** {
 18231              		.loc 1 602 0
 18232              		.cfi_startproc
 18233              		@ args = 0, pretend = 0, frame = 8
 18234              		@ frame_needed = 1, uses_anonymous_args = 0
 18235              		@ link register save eliminated.
 18236 0000 80B4     		push	{r7}
 18237              	.LCFI45:
 18238              		.cfi_def_cfa_offset 4
 18239 0002 83B0     		sub	sp, sp, #12
 18240              	.LCFI46:
 18241              		.cfi_def_cfa_offset 16
 18242 0004 00AF     		add	r7, sp, #0
 18243              		.cfi_offset 7, -4
 18244              	.LCFI47:
 18245              		.cfi_def_cfa_register 7
 18246 0006 7860     		str	r0, [r7, #4]
 18247 0008 1346     		mov	r3, r2
 18248 000a 0A46     		mov	r2, r1
 18249 000c FA70     		strb	r2, [r7, #3]
 18250 000e BB70     		strb	r3, [r7, #2]
 603:../StdPeripheralDriver/src/stm32f10x_i2c.c ****   /* Check the parameters */
 604:../StdPeripheralDriver/src/stm32f10x_i2c.c ****   assert_param(IS_I2C_ALL_PERIPH(I2Cx));
 605:../StdPeripheralDriver/src/stm32f10x_i2c.c ****   assert_param(IS_I2C_DIRECTION(I2C_Direction));
 606:../StdPeripheralDriver/src/stm32f10x_i2c.c ****   /* Test on the direction to set/reset the read/write bit */
 607:../StdPeripheralDriver/src/stm32f10x_i2c.c ****   if (I2C_Direction != I2C_Direction_Transmitter)
 18251              		.loc 1 607 0
 18252 0010 BB78     		ldrb	r3, [r7, #2]	@ zero_extendqisi2
 18253 0012 002B     		cmp	r3, #0
 18254 0014 04D0     		beq	.L47
 608:../StdPeripheralDriver/src/stm32f10x_i2c.c ****   {
 609:../StdPeripheralDriver/src/stm32f10x_i2c.c ****     /* Set the address bit0 for read */
 610:../StdPeripheralDriver/src/stm32f10x_i2c.c ****     Address |= OAR1_ADD0_Set;
 18255              		.loc 1 610 0
 18256 0016 FB78     		ldrb	r3, [r7, #3]
 18257 0018 43F00103 		orr	r3, r3, #1
 18258 001c FB70     		strb	r3, [r7, #3]
 18259 001e 03E0     		b	.L48
 18260              	.L47:
 611:../StdPeripheralDriver/src/stm32f10x_i2c.c ****   }
 612:../StdPeripheralDriver/src/stm32f10x_i2c.c ****   else
 613:../StdPeripheralDriver/src/stm32f10x_i2c.c ****   {
 614:../StdPeripheralDriver/src/stm32f10x_i2c.c ****     /* Reset the address bit0 for write */
 615:../StdPeripheralDriver/src/stm32f10x_i2c.c ****     Address &= OAR1_ADD0_Reset;
 18261              		.loc 1 615 0
 18262 0020 FB78     		ldrb	r3, [r7, #3]
 18263 0022 23F00103 		bic	r3, r3, #1
 18264 0026 FB70     		strb	r3, [r7, #3]
 18265              	.L48:
 616:../StdPeripheralDriver/src/stm32f10x_i2c.c ****   }
 617:../StdPeripheralDriver/src/stm32f10x_i2c.c ****   /* Send the address */
 618:../StdPeripheralDriver/src/stm32f10x_i2c.c ****   I2Cx->DR = Address;
 18266              		.loc 1 618 0
 18267 0028 FB78     		ldrb	r3, [r7, #3]	@ zero_extendqisi2
 18268 002a 9AB2     		uxth	r2, r3
 18269 002c 7B68     		ldr	r3, [r7, #4]
 18270 002e 1A82     		strh	r2, [r3, #16]	@ movhi
 619:../StdPeripheralDriver/src/stm32f10x_i2c.c **** }
 18271              		.loc 1 619 0
 18272 0030 07F10C07 		add	r7, r7, #12
 18273 0034 BD46     		mov	sp, r7
 18274 0036 80BC     		pop	{r7}
 18275 0038 7047     		bx	lr
 18276              		.cfi_endproc
 18277              	.LFE44:
 18279 003a 00BF     		.section	.text.I2C_ReadRegister,"ax",%progbits
 18280              		.align	2
 18281              		.global	I2C_ReadRegister
 18282              		.thumb
 18283              		.thumb_func
 18285              	I2C_ReadRegister:
 18286              	.LFB45:
 620:../StdPeripheralDriver/src/stm32f10x_i2c.c **** 
 621:../StdPeripheralDriver/src/stm32f10x_i2c.c **** /**
 622:../StdPeripheralDriver/src/stm32f10x_i2c.c ****   * @brief  Reads the specified I2C register and returns its value.
 623:../StdPeripheralDriver/src/stm32f10x_i2c.c ****   * @param  I2C_Register: specifies the register to read.
 624:../StdPeripheralDriver/src/stm32f10x_i2c.c ****   *   This parameter can be one of the following values:
 625:../StdPeripheralDriver/src/stm32f10x_i2c.c ****   *     @arg I2C_Register_CR1:  CR1 register.
 626:../StdPeripheralDriver/src/stm32f10x_i2c.c ****   *     @arg I2C_Register_CR2:   CR2 register.
 627:../StdPeripheralDriver/src/stm32f10x_i2c.c ****   *     @arg I2C_Register_OAR1:  OAR1 register.
 628:../StdPeripheralDriver/src/stm32f10x_i2c.c ****   *     @arg I2C_Register_OAR2:  OAR2 register.
 629:../StdPeripheralDriver/src/stm32f10x_i2c.c ****   *     @arg I2C_Register_DR:    DR register.
 630:../StdPeripheralDriver/src/stm32f10x_i2c.c ****   *     @arg I2C_Register_SR1:   SR1 register.
 631:../StdPeripheralDriver/src/stm32f10x_i2c.c ****   *     @arg I2C_Register_SR2:   SR2 register.
 632:../StdPeripheralDriver/src/stm32f10x_i2c.c ****   *     @arg I2C_Register_CCR:   CCR register.
 633:../StdPeripheralDriver/src/stm32f10x_i2c.c ****   *     @arg I2C_Register_TRISE: TRISE register.
 634:../StdPeripheralDriver/src/stm32f10x_i2c.c ****   * @retval The value of the read register.
 635:../StdPeripheralDriver/src/stm32f10x_i2c.c ****   */
 636:../StdPeripheralDriver/src/stm32f10x_i2c.c **** uint16_t I2C_ReadRegister(I2C_TypeDef* I2Cx, uint8_t I2C_Register)
 637:../StdPeripheralDriver/src/stm32f10x_i2c.c **** {
 18287              		.loc 1 637 0
 18288              		.cfi_startproc
 18289              		@ args = 0, pretend = 0, frame = 16
 18290              		@ frame_needed = 1, uses_anonymous_args = 0
 18291              		@ link register save eliminated.
 18292 0000 80B4     		push	{r7}
 18293              	.LCFI48:
 18294              		.cfi_def_cfa_offset 4
 18295 0002 85B0     		sub	sp, sp, #20
 18296              	.LCFI49:
 18297              		.cfi_def_cfa_offset 24
 18298 0004 00AF     		add	r7, sp, #0
 18299              		.cfi_offset 7, -4
 18300              	.LCFI50:
 18301              		.cfi_def_cfa_register 7
 18302 0006 7860     		str	r0, [r7, #4]
 18303 0008 0B46     		mov	r3, r1
 18304 000a FB70     		strb	r3, [r7, #3]
 638:../StdPeripheralDriver/src/stm32f10x_i2c.c ****   __IO uint32_t tmp = 0;
 18305              		.loc 1 638 0
 18306 000c 4FF00003 		mov	r3, #0
 18307 0010 FB60     		str	r3, [r7, #12]
 639:../StdPeripheralDriver/src/stm32f10x_i2c.c **** 
 640:../StdPeripheralDriver/src/stm32f10x_i2c.c ****   /* Check the parameters */
 641:../StdPeripheralDriver/src/stm32f10x_i2c.c ****   assert_param(IS_I2C_ALL_PERIPH(I2Cx));
 642:../StdPeripheralDriver/src/stm32f10x_i2c.c ****   assert_param(IS_I2C_REGISTER(I2C_Register));
 643:../StdPeripheralDriver/src/stm32f10x_i2c.c **** 
 644:../StdPeripheralDriver/src/stm32f10x_i2c.c ****   tmp = (uint32_t) I2Cx;
 18308              		.loc 1 644 0
 18309 0012 7B68     		ldr	r3, [r7, #4]
 18310 0014 FB60     		str	r3, [r7, #12]
 645:../StdPeripheralDriver/src/stm32f10x_i2c.c ****   tmp += I2C_Register;
 18311              		.loc 1 645 0
 18312 0016 FA78     		ldrb	r2, [r7, #3]	@ zero_extendqisi2
 18313 0018 FB68     		ldr	r3, [r7, #12]
 18314 001a D318     		adds	r3, r2, r3
 18315 001c FB60     		str	r3, [r7, #12]
 646:../StdPeripheralDriver/src/stm32f10x_i2c.c **** 
 647:../StdPeripheralDriver/src/stm32f10x_i2c.c ****   /* Return the selected register value */
 648:../StdPeripheralDriver/src/stm32f10x_i2c.c ****   return (*(__IO uint16_t *) tmp);
 18316              		.loc 1 648 0
 18317 001e FB68     		ldr	r3, [r7, #12]
 18318 0020 1B88     		ldrh	r3, [r3, #0]	@ movhi
 18319 0022 9BB2     		uxth	r3, r3
 649:../StdPeripheralDriver/src/stm32f10x_i2c.c **** }
 18320              		.loc 1 649 0
 18321 0024 1846     		mov	r0, r3
 18322 0026 07F11407 		add	r7, r7, #20
 18323 002a BD46     		mov	sp, r7
 18324 002c 80BC     		pop	{r7}
 18325 002e 7047     		bx	lr
 18326              		.cfi_endproc
 18327              	.LFE45:
 18329              		.section	.text.I2C_SoftwareResetCmd,"ax",%progbits
 18330              		.align	2
 18331              		.global	I2C_SoftwareResetCmd
 18332              		.thumb
 18333              		.thumb_func
 18335              	I2C_SoftwareResetCmd:
 18336              	.LFB46:
 650:../StdPeripheralDriver/src/stm32f10x_i2c.c **** 
 651:../StdPeripheralDriver/src/stm32f10x_i2c.c **** /**
 652:../StdPeripheralDriver/src/stm32f10x_i2c.c ****   * @brief  Enables or disables the specified I2C software reset.
 653:../StdPeripheralDriver/src/stm32f10x_i2c.c ****   * @param  I2Cx: where x can be 1 or 2 to select the I2C peripheral.
 654:../StdPeripheralDriver/src/stm32f10x_i2c.c ****   * @param  NewState: new state of the I2C software reset.
 655:../StdPeripheralDriver/src/stm32f10x_i2c.c ****   *   This parameter can be: ENABLE or DISABLE.
 656:../StdPeripheralDriver/src/stm32f10x_i2c.c ****   * @retval None
 657:../StdPeripheralDriver/src/stm32f10x_i2c.c ****   */
 658:../StdPeripheralDriver/src/stm32f10x_i2c.c **** void I2C_SoftwareResetCmd(I2C_TypeDef* I2Cx, FunctionalState NewState)
 659:../StdPeripheralDriver/src/stm32f10x_i2c.c **** {
 18337              		.loc 1 659 0
 18338              		.cfi_startproc
 18339              		@ args = 0, pretend = 0, frame = 8
 18340              		@ frame_needed = 1, uses_anonymous_args = 0
 18341              		@ link register save eliminated.
 18342 0000 80B4     		push	{r7}
 18343              	.LCFI51:
 18344              		.cfi_def_cfa_offset 4
 18345 0002 83B0     		sub	sp, sp, #12
 18346              	.LCFI52:
 18347              		.cfi_def_cfa_offset 16
 18348 0004 00AF     		add	r7, sp, #0
 18349              		.cfi_offset 7, -4
 18350              	.LCFI53:
 18351              		.cfi_def_cfa_register 7
 18352 0006 7860     		str	r0, [r7, #4]
 18353 0008 0B46     		mov	r3, r1
 18354 000a FB70     		strb	r3, [r7, #3]
 660:../StdPeripheralDriver/src/stm32f10x_i2c.c ****   /* Check the parameters */
 661:../StdPeripheralDriver/src/stm32f10x_i2c.c ****   assert_param(IS_I2C_ALL_PERIPH(I2Cx));
 662:../StdPeripheralDriver/src/stm32f10x_i2c.c ****   assert_param(IS_FUNCTIONAL_STATE(NewState));
 663:../StdPeripheralDriver/src/stm32f10x_i2c.c ****   if (NewState != DISABLE)
 18355              		.loc 1 663 0
 18356 000c FB78     		ldrb	r3, [r7, #3]	@ zero_extendqisi2
 18357 000e 002B     		cmp	r3, #0
 18358 0010 0AD0     		beq	.L51
 664:../StdPeripheralDriver/src/stm32f10x_i2c.c ****   {
 665:../StdPeripheralDriver/src/stm32f10x_i2c.c ****     /* Peripheral under reset */
 666:../StdPeripheralDriver/src/stm32f10x_i2c.c ****     I2Cx->CR1 |= CR1_SWRST_Set;
 18359              		.loc 1 666 0
 18360 0012 7B68     		ldr	r3, [r7, #4]
 18361 0014 1B88     		ldrh	r3, [r3, #0]	@ movhi
 18362 0016 9BB2     		uxth	r3, r3
 18363 0018 6FEA4343 		mvn	r3, r3, lsl #17
 18364 001c 6FEA5343 		mvn	r3, r3, lsr #17
 18365 0020 9AB2     		uxth	r2, r3
 18366 0022 7B68     		ldr	r3, [r7, #4]
 18367 0024 1A80     		strh	r2, [r3, #0]	@ movhi
 18368 0026 09E0     		b	.L50
 18369              	.L51:
 667:../StdPeripheralDriver/src/stm32f10x_i2c.c ****   }
 668:../StdPeripheralDriver/src/stm32f10x_i2c.c ****   else
 669:../StdPeripheralDriver/src/stm32f10x_i2c.c ****   {
 670:../StdPeripheralDriver/src/stm32f10x_i2c.c ****     /* Peripheral not under reset */
 671:../StdPeripheralDriver/src/stm32f10x_i2c.c ****     I2Cx->CR1 &= CR1_SWRST_Reset;
 18370              		.loc 1 671 0
 18371 0028 7B68     		ldr	r3, [r7, #4]
 18372 002a 1B88     		ldrh	r3, [r3, #0]	@ movhi
 18373 002c 9BB2     		uxth	r3, r3
 18374 002e 4FEA4343 		lsl	r3, r3, #17
 18375 0032 4FEA5343 		lsr	r3, r3, #17
 18376 0036 9AB2     		uxth	r2, r3
 18377 0038 7B68     		ldr	r3, [r7, #4]
 18378 003a 1A80     		strh	r2, [r3, #0]	@ movhi
 18379              	.L50:
 672:../StdPeripheralDriver/src/stm32f10x_i2c.c ****   }
 673:../StdPeripheralDriver/src/stm32f10x_i2c.c **** }
 18380              		.loc 1 673 0
 18381 003c 07F10C07 		add	r7, r7, #12
 18382 0040 BD46     		mov	sp, r7
 18383 0042 80BC     		pop	{r7}
 18384 0044 7047     		bx	lr
 18385              		.cfi_endproc
 18386              	.LFE46:
 18388 0046 00BF     		.section	.text.I2C_NACKPositionConfig,"ax",%progbits
 18389              		.align	2
 18390              		.global	I2C_NACKPositionConfig
 18391              		.thumb
 18392              		.thumb_func
 18394              	I2C_NACKPositionConfig:
 18395              	.LFB47:
 674:../StdPeripheralDriver/src/stm32f10x_i2c.c **** 
 675:../StdPeripheralDriver/src/stm32f10x_i2c.c **** /**
 676:../StdPeripheralDriver/src/stm32f10x_i2c.c ****   * @brief  Selects the specified I2C NACK position in master receiver mode.
 677:../StdPeripheralDriver/src/stm32f10x_i2c.c ****   *         This function is useful in I2C Master Receiver mode when the number
 678:../StdPeripheralDriver/src/stm32f10x_i2c.c ****   *         of data to be received is equal to 2. In this case, this function 
 679:../StdPeripheralDriver/src/stm32f10x_i2c.c ****   *         should be called (with parameter I2C_NACKPosition_Next) before data 
 680:../StdPeripheralDriver/src/stm32f10x_i2c.c ****   *         reception starts,as described in the 2-byte reception procedure 
 681:../StdPeripheralDriver/src/stm32f10x_i2c.c ****   *         recommended in Reference Manual in Section: Master receiver.                
 682:../StdPeripheralDriver/src/stm32f10x_i2c.c ****   * @param  I2Cx: where x can be 1 or 2 to select the I2C peripheral.
 683:../StdPeripheralDriver/src/stm32f10x_i2c.c ****   * @param  I2C_NACKPosition: specifies the NACK position. 
 684:../StdPeripheralDriver/src/stm32f10x_i2c.c ****   *   This parameter can be one of the following values:
 685:../StdPeripheralDriver/src/stm32f10x_i2c.c ****   *     @arg I2C_NACKPosition_Next: indicates that the next byte will be the last
 686:../StdPeripheralDriver/src/stm32f10x_i2c.c ****   *          received byte.  
 687:../StdPeripheralDriver/src/stm32f10x_i2c.c ****   *     @arg I2C_NACKPosition_Current: indicates that current byte is the last 
 688:../StdPeripheralDriver/src/stm32f10x_i2c.c ****   *          received byte.
 689:../StdPeripheralDriver/src/stm32f10x_i2c.c ****   *            
 690:../StdPeripheralDriver/src/stm32f10x_i2c.c ****   * @note    This function configures the same bit (POS) as I2C_PECPositionConfig() 
 691:../StdPeripheralDriver/src/stm32f10x_i2c.c ****   *          but is intended to be used in I2C mode while I2C_PECPositionConfig() 
 692:../StdPeripheralDriver/src/stm32f10x_i2c.c ****   *          is intended to used in SMBUS mode. 
 693:../StdPeripheralDriver/src/stm32f10x_i2c.c ****   *            
 694:../StdPeripheralDriver/src/stm32f10x_i2c.c ****   * @retval None
 695:../StdPeripheralDriver/src/stm32f10x_i2c.c ****   */
 696:../StdPeripheralDriver/src/stm32f10x_i2c.c **** void I2C_NACKPositionConfig(I2C_TypeDef* I2Cx, uint16_t I2C_NACKPosition)
 697:../StdPeripheralDriver/src/stm32f10x_i2c.c **** {
 18396              		.loc 1 697 0
 18397              		.cfi_startproc
 18398              		@ args = 0, pretend = 0, frame = 8
 18399              		@ frame_needed = 1, uses_anonymous_args = 0
 18400              		@ link register save eliminated.
 18401 0000 80B4     		push	{r7}
 18402              	.LCFI54:
 18403              		.cfi_def_cfa_offset 4
 18404 0002 83B0     		sub	sp, sp, #12
 18405              	.LCFI55:
 18406              		.cfi_def_cfa_offset 16
 18407 0004 00AF     		add	r7, sp, #0
 18408              		.cfi_offset 7, -4
 18409              	.LCFI56:
 18410              		.cfi_def_cfa_register 7
 18411 0006 7860     		str	r0, [r7, #4]
 18412 0008 0B46     		mov	r3, r1
 18413 000a 7B80     		strh	r3, [r7, #2]	@ movhi
 698:../StdPeripheralDriver/src/stm32f10x_i2c.c ****   /* Check the parameters */
 699:../StdPeripheralDriver/src/stm32f10x_i2c.c ****   assert_param(IS_I2C_ALL_PERIPH(I2Cx));
 700:../StdPeripheralDriver/src/stm32f10x_i2c.c ****   assert_param(IS_I2C_NACK_POSITION(I2C_NACKPosition));
 701:../StdPeripheralDriver/src/stm32f10x_i2c.c ****   
 702:../StdPeripheralDriver/src/stm32f10x_i2c.c ****   /* Check the input parameter */
 703:../StdPeripheralDriver/src/stm32f10x_i2c.c ****   if (I2C_NACKPosition == I2C_NACKPosition_Next)
 18414              		.loc 1 703 0
 18415 000c 7B88     		ldrh	r3, [r7, #2]
 18416 000e B3F5006F 		cmp	r3, #2048
 18417 0012 08D1     		bne	.L54
 704:../StdPeripheralDriver/src/stm32f10x_i2c.c ****   {
 705:../StdPeripheralDriver/src/stm32f10x_i2c.c ****     /* Next byte in shift register is the last received byte */
 706:../StdPeripheralDriver/src/stm32f10x_i2c.c ****     I2Cx->CR1 |= I2C_NACKPosition_Next;
 18418              		.loc 1 706 0
 18419 0014 7B68     		ldr	r3, [r7, #4]
 18420 0016 1B88     		ldrh	r3, [r3, #0]	@ movhi
 18421 0018 9BB2     		uxth	r3, r3
 18422 001a 43F40063 		orr	r3, r3, #2048
 18423 001e 9AB2     		uxth	r2, r3
 18424 0020 7B68     		ldr	r3, [r7, #4]
 18425 0022 1A80     		strh	r2, [r3, #0]	@ movhi
 18426 0024 07E0     		b	.L53
 18427              	.L54:
 707:../StdPeripheralDriver/src/stm32f10x_i2c.c ****   }
 708:../StdPeripheralDriver/src/stm32f10x_i2c.c ****   else
 709:../StdPeripheralDriver/src/stm32f10x_i2c.c ****   {
 710:../StdPeripheralDriver/src/stm32f10x_i2c.c ****     /* Current byte in shift register is the last received byte */
 711:../StdPeripheralDriver/src/stm32f10x_i2c.c ****     I2Cx->CR1 &= I2C_NACKPosition_Current;
 18428              		.loc 1 711 0
 18429 0026 7B68     		ldr	r3, [r7, #4]
 18430 0028 1B88     		ldrh	r3, [r3, #0]	@ movhi
 18431 002a 9BB2     		uxth	r3, r3
 18432 002c 23F40063 		bic	r3, r3, #2048
 18433 0030 9AB2     		uxth	r2, r3
 18434 0032 7B68     		ldr	r3, [r7, #4]
 18435 0034 1A80     		strh	r2, [r3, #0]	@ movhi
 18436              	.L53:
 712:../StdPeripheralDriver/src/stm32f10x_i2c.c ****   }
 713:../StdPeripheralDriver/src/stm32f10x_i2c.c **** }
 18437              		.loc 1 713 0
 18438 0036 07F10C07 		add	r7, r7, #12
 18439 003a BD46     		mov	sp, r7
 18440 003c 80BC     		pop	{r7}
 18441 003e 7047     		bx	lr
 18442              		.cfi_endproc
 18443              	.LFE47:
 18445              		.section	.text.I2C_SMBusAlertConfig,"ax",%progbits
 18446              		.align	2
 18447              		.global	I2C_SMBusAlertConfig
 18448              		.thumb
 18449              		.thumb_func
 18451              	I2C_SMBusAlertConfig:
 18452              	.LFB48:
 714:../StdPeripheralDriver/src/stm32f10x_i2c.c **** 
 715:../StdPeripheralDriver/src/stm32f10x_i2c.c **** /**
 716:../StdPeripheralDriver/src/stm32f10x_i2c.c ****   * @brief  Drives the SMBusAlert pin high or low for the specified I2C.
 717:../StdPeripheralDriver/src/stm32f10x_i2c.c ****   * @param  I2Cx: where x can be 1 or 2 to select the I2C peripheral.
 718:../StdPeripheralDriver/src/stm32f10x_i2c.c ****   * @param  I2C_SMBusAlert: specifies SMBAlert pin level. 
 719:../StdPeripheralDriver/src/stm32f10x_i2c.c ****   *   This parameter can be one of the following values:
 720:../StdPeripheralDriver/src/stm32f10x_i2c.c ****   *     @arg I2C_SMBusAlert_Low: SMBAlert pin driven low
 721:../StdPeripheralDriver/src/stm32f10x_i2c.c ****   *     @arg I2C_SMBusAlert_High: SMBAlert pin driven high
 722:../StdPeripheralDriver/src/stm32f10x_i2c.c ****   * @retval None
 723:../StdPeripheralDriver/src/stm32f10x_i2c.c ****   */
 724:../StdPeripheralDriver/src/stm32f10x_i2c.c **** void I2C_SMBusAlertConfig(I2C_TypeDef* I2Cx, uint16_t I2C_SMBusAlert)
 725:../StdPeripheralDriver/src/stm32f10x_i2c.c **** {
 18453              		.loc 1 725 0
 18454              		.cfi_startproc
 18455              		@ args = 0, pretend = 0, frame = 8
 18456              		@ frame_needed = 1, uses_anonymous_args = 0
 18457              		@ link register save eliminated.
 18458 0000 80B4     		push	{r7}
 18459              	.LCFI57:
 18460              		.cfi_def_cfa_offset 4
 18461 0002 83B0     		sub	sp, sp, #12
 18462              	.LCFI58:
 18463              		.cfi_def_cfa_offset 16
 18464 0004 00AF     		add	r7, sp, #0
 18465              		.cfi_offset 7, -4
 18466              	.LCFI59:
 18467              		.cfi_def_cfa_register 7
 18468 0006 7860     		str	r0, [r7, #4]
 18469 0008 0B46     		mov	r3, r1
 18470 000a 7B80     		strh	r3, [r7, #2]	@ movhi
 726:../StdPeripheralDriver/src/stm32f10x_i2c.c ****   /* Check the parameters */
 727:../StdPeripheralDriver/src/stm32f10x_i2c.c ****   assert_param(IS_I2C_ALL_PERIPH(I2Cx));
 728:../StdPeripheralDriver/src/stm32f10x_i2c.c ****   assert_param(IS_I2C_SMBUS_ALERT(I2C_SMBusAlert));
 729:../StdPeripheralDriver/src/stm32f10x_i2c.c ****   if (I2C_SMBusAlert == I2C_SMBusAlert_Low)
 18471              		.loc 1 729 0
 18472 000c 7B88     		ldrh	r3, [r7, #2]
 18473 000e B3F5005F 		cmp	r3, #8192
 18474 0012 08D1     		bne	.L57
 730:../StdPeripheralDriver/src/stm32f10x_i2c.c ****   {
 731:../StdPeripheralDriver/src/stm32f10x_i2c.c ****     /* Drive the SMBusAlert pin Low */
 732:../StdPeripheralDriver/src/stm32f10x_i2c.c ****     I2Cx->CR1 |= I2C_SMBusAlert_Low;
 18475              		.loc 1 732 0
 18476 0014 7B68     		ldr	r3, [r7, #4]
 18477 0016 1B88     		ldrh	r3, [r3, #0]	@ movhi
 18478 0018 9BB2     		uxth	r3, r3
 18479 001a 43F40053 		orr	r3, r3, #8192
 18480 001e 9AB2     		uxth	r2, r3
 18481 0020 7B68     		ldr	r3, [r7, #4]
 18482 0022 1A80     		strh	r2, [r3, #0]	@ movhi
 18483 0024 07E0     		b	.L56
 18484              	.L57:
 733:../StdPeripheralDriver/src/stm32f10x_i2c.c ****   }
 734:../StdPeripheralDriver/src/stm32f10x_i2c.c ****   else
 735:../StdPeripheralDriver/src/stm32f10x_i2c.c ****   {
 736:../StdPeripheralDriver/src/stm32f10x_i2c.c ****     /* Drive the SMBusAlert pin High  */
 737:../StdPeripheralDriver/src/stm32f10x_i2c.c ****     I2Cx->CR1 &= I2C_SMBusAlert_High;
 18485              		.loc 1 737 0
 18486 0026 7B68     		ldr	r3, [r7, #4]
 18487 0028 1B88     		ldrh	r3, [r3, #0]	@ movhi
 18488 002a 9BB2     		uxth	r3, r3
 18489 002c 23F40053 		bic	r3, r3, #8192
 18490 0030 9AB2     		uxth	r2, r3
 18491 0032 7B68     		ldr	r3, [r7, #4]
 18492 0034 1A80     		strh	r2, [r3, #0]	@ movhi
 18493              	.L56:
 738:../StdPeripheralDriver/src/stm32f10x_i2c.c ****   }
 739:../StdPeripheralDriver/src/stm32f10x_i2c.c **** }
 18494              		.loc 1 739 0
 18495 0036 07F10C07 		add	r7, r7, #12
 18496 003a BD46     		mov	sp, r7
 18497 003c 80BC     		pop	{r7}
 18498 003e 7047     		bx	lr
 18499              		.cfi_endproc
 18500              	.LFE48:
 18502              		.section	.text.I2C_TransmitPEC,"ax",%progbits
 18503              		.align	2
 18504              		.global	I2C_TransmitPEC
 18505              		.thumb
 18506              		.thumb_func
 18508              	I2C_TransmitPEC:
 18509              	.LFB49:
 740:../StdPeripheralDriver/src/stm32f10x_i2c.c **** 
 741:../StdPeripheralDriver/src/stm32f10x_i2c.c **** /**
 742:../StdPeripheralDriver/src/stm32f10x_i2c.c ****   * @brief  Enables or disables the specified I2C PEC transfer.
 743:../StdPeripheralDriver/src/stm32f10x_i2c.c ****   * @param  I2Cx: where x can be 1 or 2 to select the I2C peripheral.
 744:../StdPeripheralDriver/src/stm32f10x_i2c.c ****   * @param  NewState: new state of the I2C PEC transmission.
 745:../StdPeripheralDriver/src/stm32f10x_i2c.c ****   *   This parameter can be: ENABLE or DISABLE.
 746:../StdPeripheralDriver/src/stm32f10x_i2c.c ****   * @retval None
 747:../StdPeripheralDriver/src/stm32f10x_i2c.c ****   */
 748:../StdPeripheralDriver/src/stm32f10x_i2c.c **** void I2C_TransmitPEC(I2C_TypeDef* I2Cx, FunctionalState NewState)
 749:../StdPeripheralDriver/src/stm32f10x_i2c.c **** {
 18510              		.loc 1 749 0
 18511              		.cfi_startproc
 18512              		@ args = 0, pretend = 0, frame = 8
 18513              		@ frame_needed = 1, uses_anonymous_args = 0
 18514              		@ link register save eliminated.
 18515 0000 80B4     		push	{r7}
 18516              	.LCFI60:
 18517              		.cfi_def_cfa_offset 4
 18518 0002 83B0     		sub	sp, sp, #12
 18519              	.LCFI61:
 18520              		.cfi_def_cfa_offset 16
 18521 0004 00AF     		add	r7, sp, #0
 18522              		.cfi_offset 7, -4
 18523              	.LCFI62:
 18524              		.cfi_def_cfa_register 7
 18525 0006 7860     		str	r0, [r7, #4]
 18526 0008 0B46     		mov	r3, r1
 18527 000a FB70     		strb	r3, [r7, #3]
 750:../StdPeripheralDriver/src/stm32f10x_i2c.c ****   /* Check the parameters */
 751:../StdPeripheralDriver/src/stm32f10x_i2c.c ****   assert_param(IS_I2C_ALL_PERIPH(I2Cx));
 752:../StdPeripheralDriver/src/stm32f10x_i2c.c ****   assert_param(IS_FUNCTIONAL_STATE(NewState));
 753:../StdPeripheralDriver/src/stm32f10x_i2c.c ****   if (NewState != DISABLE)
 18528              		.loc 1 753 0
 18529 000c FB78     		ldrb	r3, [r7, #3]	@ zero_extendqisi2
 18530 000e 002B     		cmp	r3, #0
 18531 0010 08D0     		beq	.L60
 754:../StdPeripheralDriver/src/stm32f10x_i2c.c ****   {
 755:../StdPeripheralDriver/src/stm32f10x_i2c.c ****     /* Enable the selected I2C PEC transmission */
 756:../StdPeripheralDriver/src/stm32f10x_i2c.c ****     I2Cx->CR1 |= CR1_PEC_Set;
 18532              		.loc 1 756 0
 18533 0012 7B68     		ldr	r3, [r7, #4]
 18534 0014 1B88     		ldrh	r3, [r3, #0]	@ movhi
 18535 0016 9BB2     		uxth	r3, r3
 18536 0018 43F48053 		orr	r3, r3, #4096
 18537 001c 9AB2     		uxth	r2, r3
 18538 001e 7B68     		ldr	r3, [r7, #4]
 18539 0020 1A80     		strh	r2, [r3, #0]	@ movhi
 18540 0022 07E0     		b	.L59
 18541              	.L60:
 757:../StdPeripheralDriver/src/stm32f10x_i2c.c ****   }
 758:../StdPeripheralDriver/src/stm32f10x_i2c.c ****   else
 759:../StdPeripheralDriver/src/stm32f10x_i2c.c ****   {
 760:../StdPeripheralDriver/src/stm32f10x_i2c.c ****     /* Disable the selected I2C PEC transmission */
 761:../StdPeripheralDriver/src/stm32f10x_i2c.c ****     I2Cx->CR1 &= CR1_PEC_Reset;
 18542              		.loc 1 761 0
 18543 0024 7B68     		ldr	r3, [r7, #4]
 18544 0026 1B88     		ldrh	r3, [r3, #0]	@ movhi
 18545 0028 9BB2     		uxth	r3, r3
 18546 002a 23F48053 		bic	r3, r3, #4096
 18547 002e 9AB2     		uxth	r2, r3
 18548 0030 7B68     		ldr	r3, [r7, #4]
 18549 0032 1A80     		strh	r2, [r3, #0]	@ movhi
 18550              	.L59:
 762:../StdPeripheralDriver/src/stm32f10x_i2c.c ****   }
 763:../StdPeripheralDriver/src/stm32f10x_i2c.c **** }
 18551              		.loc 1 763 0
 18552 0034 07F10C07 		add	r7, r7, #12
 18553 0038 BD46     		mov	sp, r7
 18554 003a 80BC     		pop	{r7}
 18555 003c 7047     		bx	lr
 18556              		.cfi_endproc
 18557              	.LFE49:
 18559 003e 00BF     		.section	.text.I2C_PECPositionConfig,"ax",%progbits
 18560              		.align	2
 18561              		.global	I2C_PECPositionConfig
 18562              		.thumb
 18563              		.thumb_func
 18565              	I2C_PECPositionConfig:
 18566              	.LFB50:
 764:../StdPeripheralDriver/src/stm32f10x_i2c.c **** 
 765:../StdPeripheralDriver/src/stm32f10x_i2c.c **** /**
 766:../StdPeripheralDriver/src/stm32f10x_i2c.c ****   * @brief  Selects the specified I2C PEC position.
 767:../StdPeripheralDriver/src/stm32f10x_i2c.c ****   * @param  I2Cx: where x can be 1 or 2 to select the I2C peripheral.
 768:../StdPeripheralDriver/src/stm32f10x_i2c.c ****   * @param  I2C_PECPosition: specifies the PEC position. 
 769:../StdPeripheralDriver/src/stm32f10x_i2c.c ****   *   This parameter can be one of the following values:
 770:../StdPeripheralDriver/src/stm32f10x_i2c.c ****   *     @arg I2C_PECPosition_Next: indicates that the next byte is PEC
 771:../StdPeripheralDriver/src/stm32f10x_i2c.c ****   *     @arg I2C_PECPosition_Current: indicates that current byte is PEC
 772:../StdPeripheralDriver/src/stm32f10x_i2c.c ****   *       
 773:../StdPeripheralDriver/src/stm32f10x_i2c.c ****   * @note    This function configures the same bit (POS) as I2C_NACKPositionConfig()
 774:../StdPeripheralDriver/src/stm32f10x_i2c.c ****   *          but is intended to be used in SMBUS mode while I2C_NACKPositionConfig() 
 775:../StdPeripheralDriver/src/stm32f10x_i2c.c ****   *          is intended to used in I2C mode.
 776:../StdPeripheralDriver/src/stm32f10x_i2c.c ****   *               
 777:../StdPeripheralDriver/src/stm32f10x_i2c.c ****   * @retval None
 778:../StdPeripheralDriver/src/stm32f10x_i2c.c ****   */
 779:../StdPeripheralDriver/src/stm32f10x_i2c.c **** void I2C_PECPositionConfig(I2C_TypeDef* I2Cx, uint16_t I2C_PECPosition)
 780:../StdPeripheralDriver/src/stm32f10x_i2c.c **** {
 18567              		.loc 1 780 0
 18568              		.cfi_startproc
 18569              		@ args = 0, pretend = 0, frame = 8
 18570              		@ frame_needed = 1, uses_anonymous_args = 0
 18571              		@ link register save eliminated.
 18572 0000 80B4     		push	{r7}
 18573              	.LCFI63:
 18574              		.cfi_def_cfa_offset 4
 18575 0002 83B0     		sub	sp, sp, #12
 18576              	.LCFI64:
 18577              		.cfi_def_cfa_offset 16
 18578 0004 00AF     		add	r7, sp, #0
 18579              		.cfi_offset 7, -4
 18580              	.LCFI65:
 18581              		.cfi_def_cfa_register 7
 18582 0006 7860     		str	r0, [r7, #4]
 18583 0008 0B46     		mov	r3, r1
 18584 000a 7B80     		strh	r3, [r7, #2]	@ movhi
 781:../StdPeripheralDriver/src/stm32f10x_i2c.c ****   /* Check the parameters */
 782:../StdPeripheralDriver/src/stm32f10x_i2c.c ****   assert_param(IS_I2C_ALL_PERIPH(I2Cx));
 783:../StdPeripheralDriver/src/stm32f10x_i2c.c ****   assert_param(IS_I2C_PEC_POSITION(I2C_PECPosition));
 784:../StdPeripheralDriver/src/stm32f10x_i2c.c ****   if (I2C_PECPosition == I2C_PECPosition_Next)
 18585              		.loc 1 784 0
 18586 000c 7B88     		ldrh	r3, [r7, #2]
 18587 000e B3F5006F 		cmp	r3, #2048
 18588 0012 08D1     		bne	.L63
 785:../StdPeripheralDriver/src/stm32f10x_i2c.c ****   {
 786:../StdPeripheralDriver/src/stm32f10x_i2c.c ****     /* Next byte in shift register is PEC */
 787:../StdPeripheralDriver/src/stm32f10x_i2c.c ****     I2Cx->CR1 |= I2C_PECPosition_Next;
 18589              		.loc 1 787 0
 18590 0014 7B68     		ldr	r3, [r7, #4]
 18591 0016 1B88     		ldrh	r3, [r3, #0]	@ movhi
 18592 0018 9BB2     		uxth	r3, r3
 18593 001a 43F40063 		orr	r3, r3, #2048
 18594 001e 9AB2     		uxth	r2, r3
 18595 0020 7B68     		ldr	r3, [r7, #4]
 18596 0022 1A80     		strh	r2, [r3, #0]	@ movhi
 18597 0024 07E0     		b	.L62
 18598              	.L63:
 788:../StdPeripheralDriver/src/stm32f10x_i2c.c ****   }
 789:../StdPeripheralDriver/src/stm32f10x_i2c.c ****   else
 790:../StdPeripheralDriver/src/stm32f10x_i2c.c ****   {
 791:../StdPeripheralDriver/src/stm32f10x_i2c.c ****     /* Current byte in shift register is PEC */
 792:../StdPeripheralDriver/src/stm32f10x_i2c.c ****     I2Cx->CR1 &= I2C_PECPosition_Current;
 18599              		.loc 1 792 0
 18600 0026 7B68     		ldr	r3, [r7, #4]
 18601 0028 1B88     		ldrh	r3, [r3, #0]	@ movhi
 18602 002a 9BB2     		uxth	r3, r3
 18603 002c 23F40063 		bic	r3, r3, #2048
 18604 0030 9AB2     		uxth	r2, r3
 18605 0032 7B68     		ldr	r3, [r7, #4]
 18606 0034 1A80     		strh	r2, [r3, #0]	@ movhi
 18607              	.L62:
 793:../StdPeripheralDriver/src/stm32f10x_i2c.c ****   }
 794:../StdPeripheralDriver/src/stm32f10x_i2c.c **** }
 18608              		.loc 1 794 0
 18609 0036 07F10C07 		add	r7, r7, #12
 18610 003a BD46     		mov	sp, r7
 18611 003c 80BC     		pop	{r7}
 18612 003e 7047     		bx	lr
 18613              		.cfi_endproc
 18614              	.LFE50:
 18616              		.section	.text.I2C_CalculatePEC,"ax",%progbits
 18617              		.align	2
 18618              		.global	I2C_CalculatePEC
 18619              		.thumb
 18620              		.thumb_func
 18622              	I2C_CalculatePEC:
 18623              	.LFB51:
 795:../StdPeripheralDriver/src/stm32f10x_i2c.c **** 
 796:../StdPeripheralDriver/src/stm32f10x_i2c.c **** /**
 797:../StdPeripheralDriver/src/stm32f10x_i2c.c ****   * @brief  Enables or disables the PEC value calculation of the transferred bytes.
 798:../StdPeripheralDriver/src/stm32f10x_i2c.c ****   * @param  I2Cx: where x can be 1 or 2 to select the I2C peripheral.
 799:../StdPeripheralDriver/src/stm32f10x_i2c.c ****   * @param  NewState: new state of the I2Cx PEC value calculation.
 800:../StdPeripheralDriver/src/stm32f10x_i2c.c ****   *   This parameter can be: ENABLE or DISABLE.
 801:../StdPeripheralDriver/src/stm32f10x_i2c.c ****   * @retval None
 802:../StdPeripheralDriver/src/stm32f10x_i2c.c ****   */
 803:../StdPeripheralDriver/src/stm32f10x_i2c.c **** void I2C_CalculatePEC(I2C_TypeDef* I2Cx, FunctionalState NewState)
 804:../StdPeripheralDriver/src/stm32f10x_i2c.c **** {
 18624              		.loc 1 804 0
 18625              		.cfi_startproc
 18626              		@ args = 0, pretend = 0, frame = 8
 18627              		@ frame_needed = 1, uses_anonymous_args = 0
 18628              		@ link register save eliminated.
 18629 0000 80B4     		push	{r7}
 18630              	.LCFI66:
 18631              		.cfi_def_cfa_offset 4
 18632 0002 83B0     		sub	sp, sp, #12
 18633              	.LCFI67:
 18634              		.cfi_def_cfa_offset 16
 18635 0004 00AF     		add	r7, sp, #0
 18636              		.cfi_offset 7, -4
 18637              	.LCFI68:
 18638              		.cfi_def_cfa_register 7
 18639 0006 7860     		str	r0, [r7, #4]
 18640 0008 0B46     		mov	r3, r1
 18641 000a FB70     		strb	r3, [r7, #3]
 805:../StdPeripheralDriver/src/stm32f10x_i2c.c ****   /* Check the parameters */
 806:../StdPeripheralDriver/src/stm32f10x_i2c.c ****   assert_param(IS_I2C_ALL_PERIPH(I2Cx));
 807:../StdPeripheralDriver/src/stm32f10x_i2c.c ****   assert_param(IS_FUNCTIONAL_STATE(NewState));
 808:../StdPeripheralDriver/src/stm32f10x_i2c.c ****   if (NewState != DISABLE)
 18642              		.loc 1 808 0
 18643 000c FB78     		ldrb	r3, [r7, #3]	@ zero_extendqisi2
 18644 000e 002B     		cmp	r3, #0
 18645 0010 08D0     		beq	.L66
 809:../StdPeripheralDriver/src/stm32f10x_i2c.c ****   {
 810:../StdPeripheralDriver/src/stm32f10x_i2c.c ****     /* Enable the selected I2C PEC calculation */
 811:../StdPeripheralDriver/src/stm32f10x_i2c.c ****     I2Cx->CR1 |= CR1_ENPEC_Set;
 18646              		.loc 1 811 0
 18647 0012 7B68     		ldr	r3, [r7, #4]
 18648 0014 1B88     		ldrh	r3, [r3, #0]	@ movhi
 18649 0016 9BB2     		uxth	r3, r3
 18650 0018 43F02003 		orr	r3, r3, #32
 18651 001c 9AB2     		uxth	r2, r3
 18652 001e 7B68     		ldr	r3, [r7, #4]
 18653 0020 1A80     		strh	r2, [r3, #0]	@ movhi
 18654 0022 07E0     		b	.L65
 18655              	.L66:
 812:../StdPeripheralDriver/src/stm32f10x_i2c.c ****   }
 813:../StdPeripheralDriver/src/stm32f10x_i2c.c ****   else
 814:../StdPeripheralDriver/src/stm32f10x_i2c.c ****   {
 815:../StdPeripheralDriver/src/stm32f10x_i2c.c ****     /* Disable the selected I2C PEC calculation */
 816:../StdPeripheralDriver/src/stm32f10x_i2c.c ****     I2Cx->CR1 &= CR1_ENPEC_Reset;
 18656              		.loc 1 816 0
 18657 0024 7B68     		ldr	r3, [r7, #4]
 18658 0026 1B88     		ldrh	r3, [r3, #0]	@ movhi
 18659 0028 9BB2     		uxth	r3, r3
 18660 002a 23F02003 		bic	r3, r3, #32
 18661 002e 9AB2     		uxth	r2, r3
 18662 0030 7B68     		ldr	r3, [r7, #4]
 18663 0032 1A80     		strh	r2, [r3, #0]	@ movhi
 18664              	.L65:
 817:../StdPeripheralDriver/src/stm32f10x_i2c.c ****   }
 818:../StdPeripheralDriver/src/stm32f10x_i2c.c **** }
 18665              		.loc 1 818 0
 18666 0034 07F10C07 		add	r7, r7, #12
 18667 0038 BD46     		mov	sp, r7
 18668 003a 80BC     		pop	{r7}
 18669 003c 7047     		bx	lr
 18670              		.cfi_endproc
 18671              	.LFE51:
 18673 003e 00BF     		.section	.text.I2C_GetPEC,"ax",%progbits
 18674              		.align	2
 18675              		.global	I2C_GetPEC
 18676              		.thumb
 18677              		.thumb_func
 18679              	I2C_GetPEC:
 18680              	.LFB52:
 819:../StdPeripheralDriver/src/stm32f10x_i2c.c **** 
 820:../StdPeripheralDriver/src/stm32f10x_i2c.c **** /**
 821:../StdPeripheralDriver/src/stm32f10x_i2c.c ****   * @brief  Returns the PEC value for the specified I2C.
 822:../StdPeripheralDriver/src/stm32f10x_i2c.c ****   * @param  I2Cx: where x can be 1 or 2 to select the I2C peripheral.
 823:../StdPeripheralDriver/src/stm32f10x_i2c.c ****   * @retval The PEC value.
 824:../StdPeripheralDriver/src/stm32f10x_i2c.c ****   */
 825:../StdPeripheralDriver/src/stm32f10x_i2c.c **** uint8_t I2C_GetPEC(I2C_TypeDef* I2Cx)
 826:../StdPeripheralDriver/src/stm32f10x_i2c.c **** {
 18681              		.loc 1 826 0
 18682              		.cfi_startproc
 18683              		@ args = 0, pretend = 0, frame = 8
 18684              		@ frame_needed = 1, uses_anonymous_args = 0
 18685              		@ link register save eliminated.
 18686 0000 80B4     		push	{r7}
 18687              	.LCFI69:
 18688              		.cfi_def_cfa_offset 4
 18689 0002 83B0     		sub	sp, sp, #12
 18690              	.LCFI70:
 18691              		.cfi_def_cfa_offset 16
 18692 0004 00AF     		add	r7, sp, #0
 18693              		.cfi_offset 7, -4
 18694              	.LCFI71:
 18695              		.cfi_def_cfa_register 7
 18696 0006 7860     		str	r0, [r7, #4]
 827:../StdPeripheralDriver/src/stm32f10x_i2c.c ****   /* Check the parameters */
 828:../StdPeripheralDriver/src/stm32f10x_i2c.c ****   assert_param(IS_I2C_ALL_PERIPH(I2Cx));
 829:../StdPeripheralDriver/src/stm32f10x_i2c.c ****   /* Return the selected I2C PEC value */
 830:../StdPeripheralDriver/src/stm32f10x_i2c.c ****   return ((I2Cx->SR2) >> 8);
 18697              		.loc 1 830 0
 18698 0008 7B68     		ldr	r3, [r7, #4]
 18699 000a 1B8B     		ldrh	r3, [r3, #24]	@ movhi
 18700 000c 9BB2     		uxth	r3, r3
 18701 000e 4FEA1323 		lsr	r3, r3, #8
 18702 0012 9BB2     		uxth	r3, r3
 18703 0014 DBB2     		uxtb	r3, r3
 831:../StdPeripheralDriver/src/stm32f10x_i2c.c **** }
 18704              		.loc 1 831 0
 18705 0016 1846     		mov	r0, r3
 18706 0018 07F10C07 		add	r7, r7, #12
 18707 001c BD46     		mov	sp, r7
 18708 001e 80BC     		pop	{r7}
 18709 0020 7047     		bx	lr
 18710              		.cfi_endproc
 18711              	.LFE52:
 18713 0022 00BF     		.section	.text.I2C_ARPCmd,"ax",%progbits
 18714              		.align	2
 18715              		.global	I2C_ARPCmd
 18716              		.thumb
 18717              		.thumb_func
 18719              	I2C_ARPCmd:
 18720              	.LFB53:
 832:../StdPeripheralDriver/src/stm32f10x_i2c.c **** 
 833:../StdPeripheralDriver/src/stm32f10x_i2c.c **** /**
 834:../StdPeripheralDriver/src/stm32f10x_i2c.c ****   * @brief  Enables or disables the specified I2C ARP.
 835:../StdPeripheralDriver/src/stm32f10x_i2c.c ****   * @param  I2Cx: where x can be 1 or 2 to select the I2C peripheral.
 836:../StdPeripheralDriver/src/stm32f10x_i2c.c ****   * @param  NewState: new state of the I2Cx ARP. 
 837:../StdPeripheralDriver/src/stm32f10x_i2c.c ****   *   This parameter can be: ENABLE or DISABLE.
 838:../StdPeripheralDriver/src/stm32f10x_i2c.c ****   * @retval None
 839:../StdPeripheralDriver/src/stm32f10x_i2c.c ****   */
 840:../StdPeripheralDriver/src/stm32f10x_i2c.c **** void I2C_ARPCmd(I2C_TypeDef* I2Cx, FunctionalState NewState)
 841:../StdPeripheralDriver/src/stm32f10x_i2c.c **** {
 18721              		.loc 1 841 0
 18722              		.cfi_startproc
 18723              		@ args = 0, pretend = 0, frame = 8
 18724              		@ frame_needed = 1, uses_anonymous_args = 0
 18725              		@ link register save eliminated.
 18726 0000 80B4     		push	{r7}
 18727              	.LCFI72:
 18728              		.cfi_def_cfa_offset 4
 18729 0002 83B0     		sub	sp, sp, #12
 18730              	.LCFI73:
 18731              		.cfi_def_cfa_offset 16
 18732 0004 00AF     		add	r7, sp, #0
 18733              		.cfi_offset 7, -4
 18734              	.LCFI74:
 18735              		.cfi_def_cfa_register 7
 18736 0006 7860     		str	r0, [r7, #4]
 18737 0008 0B46     		mov	r3, r1
 18738 000a FB70     		strb	r3, [r7, #3]
 842:../StdPeripheralDriver/src/stm32f10x_i2c.c ****   /* Check the parameters */
 843:../StdPeripheralDriver/src/stm32f10x_i2c.c ****   assert_param(IS_I2C_ALL_PERIPH(I2Cx));
 844:../StdPeripheralDriver/src/stm32f10x_i2c.c ****   assert_param(IS_FUNCTIONAL_STATE(NewState));
 845:../StdPeripheralDriver/src/stm32f10x_i2c.c ****   if (NewState != DISABLE)
 18739              		.loc 1 845 0
 18740 000c FB78     		ldrb	r3, [r7, #3]	@ zero_extendqisi2
 18741 000e 002B     		cmp	r3, #0
 18742 0010 08D0     		beq	.L70
 846:../StdPeripheralDriver/src/stm32f10x_i2c.c ****   {
 847:../StdPeripheralDriver/src/stm32f10x_i2c.c ****     /* Enable the selected I2C ARP */
 848:../StdPeripheralDriver/src/stm32f10x_i2c.c ****     I2Cx->CR1 |= CR1_ENARP_Set;
 18743              		.loc 1 848 0
 18744 0012 7B68     		ldr	r3, [r7, #4]
 18745 0014 1B88     		ldrh	r3, [r3, #0]	@ movhi
 18746 0016 9BB2     		uxth	r3, r3
 18747 0018 43F01003 		orr	r3, r3, #16
 18748 001c 9AB2     		uxth	r2, r3
 18749 001e 7B68     		ldr	r3, [r7, #4]
 18750 0020 1A80     		strh	r2, [r3, #0]	@ movhi
 18751 0022 07E0     		b	.L69
 18752              	.L70:
 849:../StdPeripheralDriver/src/stm32f10x_i2c.c ****   }
 850:../StdPeripheralDriver/src/stm32f10x_i2c.c ****   else
 851:../StdPeripheralDriver/src/stm32f10x_i2c.c ****   {
 852:../StdPeripheralDriver/src/stm32f10x_i2c.c ****     /* Disable the selected I2C ARP */
 853:../StdPeripheralDriver/src/stm32f10x_i2c.c ****     I2Cx->CR1 &= CR1_ENARP_Reset;
 18753              		.loc 1 853 0
 18754 0024 7B68     		ldr	r3, [r7, #4]
 18755 0026 1B88     		ldrh	r3, [r3, #0]	@ movhi
 18756 0028 9BB2     		uxth	r3, r3
 18757 002a 23F01003 		bic	r3, r3, #16
 18758 002e 9AB2     		uxth	r2, r3
 18759 0030 7B68     		ldr	r3, [r7, #4]
 18760 0032 1A80     		strh	r2, [r3, #0]	@ movhi
 18761              	.L69:
 854:../StdPeripheralDriver/src/stm32f10x_i2c.c ****   }
 855:../StdPeripheralDriver/src/stm32f10x_i2c.c **** }
 18762              		.loc 1 855 0
 18763 0034 07F10C07 		add	r7, r7, #12
 18764 0038 BD46     		mov	sp, r7
 18765 003a 80BC     		pop	{r7}
 18766 003c 7047     		bx	lr
 18767              		.cfi_endproc
 18768              	.LFE53:
 18770 003e 00BF     		.section	.text.I2C_StretchClockCmd,"ax",%progbits
 18771              		.align	2
 18772              		.global	I2C_StretchClockCmd
 18773              		.thumb
 18774              		.thumb_func
 18776              	I2C_StretchClockCmd:
 18777              	.LFB54:
 856:../StdPeripheralDriver/src/stm32f10x_i2c.c **** 
 857:../StdPeripheralDriver/src/stm32f10x_i2c.c **** /**
 858:../StdPeripheralDriver/src/stm32f10x_i2c.c ****   * @brief  Enables or disables the specified I2C Clock stretching.
 859:../StdPeripheralDriver/src/stm32f10x_i2c.c ****   * @param  I2Cx: where x can be 1 or 2 to select the I2C peripheral.
 860:../StdPeripheralDriver/src/stm32f10x_i2c.c ****   * @param  NewState: new state of the I2Cx Clock stretching.
 861:../StdPeripheralDriver/src/stm32f10x_i2c.c ****   *   This parameter can be: ENABLE or DISABLE.
 862:../StdPeripheralDriver/src/stm32f10x_i2c.c ****   * @retval None
 863:../StdPeripheralDriver/src/stm32f10x_i2c.c ****   */
 864:../StdPeripheralDriver/src/stm32f10x_i2c.c **** void I2C_StretchClockCmd(I2C_TypeDef* I2Cx, FunctionalState NewState)
 865:../StdPeripheralDriver/src/stm32f10x_i2c.c **** {
 18778              		.loc 1 865 0
 18779              		.cfi_startproc
 18780              		@ args = 0, pretend = 0, frame = 8
 18781              		@ frame_needed = 1, uses_anonymous_args = 0
 18782              		@ link register save eliminated.
 18783 0000 80B4     		push	{r7}
 18784              	.LCFI75:
 18785              		.cfi_def_cfa_offset 4
 18786 0002 83B0     		sub	sp, sp, #12
 18787              	.LCFI76:
 18788              		.cfi_def_cfa_offset 16
 18789 0004 00AF     		add	r7, sp, #0
 18790              		.cfi_offset 7, -4
 18791              	.LCFI77:
 18792              		.cfi_def_cfa_register 7
 18793 0006 7860     		str	r0, [r7, #4]
 18794 0008 0B46     		mov	r3, r1
 18795 000a FB70     		strb	r3, [r7, #3]
 866:../StdPeripheralDriver/src/stm32f10x_i2c.c ****   /* Check the parameters */
 867:../StdPeripheralDriver/src/stm32f10x_i2c.c ****   assert_param(IS_I2C_ALL_PERIPH(I2Cx));
 868:../StdPeripheralDriver/src/stm32f10x_i2c.c ****   assert_param(IS_FUNCTIONAL_STATE(NewState));
 869:../StdPeripheralDriver/src/stm32f10x_i2c.c ****   if (NewState == DISABLE)
 18796              		.loc 1 869 0
 18797 000c FB78     		ldrb	r3, [r7, #3]	@ zero_extendqisi2
 18798 000e 002B     		cmp	r3, #0
 18799 0010 08D1     		bne	.L73
 870:../StdPeripheralDriver/src/stm32f10x_i2c.c ****   {
 871:../StdPeripheralDriver/src/stm32f10x_i2c.c ****     /* Enable the selected I2C Clock stretching */
 872:../StdPeripheralDriver/src/stm32f10x_i2c.c ****     I2Cx->CR1 |= CR1_NOSTRETCH_Set;
 18800              		.loc 1 872 0
 18801 0012 7B68     		ldr	r3, [r7, #4]
 18802 0014 1B88     		ldrh	r3, [r3, #0]	@ movhi
 18803 0016 9BB2     		uxth	r3, r3
 18804 0018 43F08003 		orr	r3, r3, #128
 18805 001c 9AB2     		uxth	r2, r3
 18806 001e 7B68     		ldr	r3, [r7, #4]
 18807 0020 1A80     		strh	r2, [r3, #0]	@ movhi
 18808 0022 07E0     		b	.L72
 18809              	.L73:
 873:../StdPeripheralDriver/src/stm32f10x_i2c.c ****   }
 874:../StdPeripheralDriver/src/stm32f10x_i2c.c ****   else
 875:../StdPeripheralDriver/src/stm32f10x_i2c.c ****   {
 876:../StdPeripheralDriver/src/stm32f10x_i2c.c ****     /* Disable the selected I2C Clock stretching */
 877:../StdPeripheralDriver/src/stm32f10x_i2c.c ****     I2Cx->CR1 &= CR1_NOSTRETCH_Reset;
 18810              		.loc 1 877 0
 18811 0024 7B68     		ldr	r3, [r7, #4]
 18812 0026 1B88     		ldrh	r3, [r3, #0]	@ movhi
 18813 0028 9BB2     		uxth	r3, r3
 18814 002a 23F08003 		bic	r3, r3, #128
 18815 002e 9AB2     		uxth	r2, r3
 18816 0030 7B68     		ldr	r3, [r7, #4]
 18817 0032 1A80     		strh	r2, [r3, #0]	@ movhi
 18818              	.L72:
 878:../StdPeripheralDriver/src/stm32f10x_i2c.c ****   }
 879:../StdPeripheralDriver/src/stm32f10x_i2c.c **** }
 18819              		.loc 1 879 0
 18820 0034 07F10C07 		add	r7, r7, #12
 18821 0038 BD46     		mov	sp, r7
 18822 003a 80BC     		pop	{r7}
 18823 003c 7047     		bx	lr
 18824              		.cfi_endproc
 18825              	.LFE54:
 18827 003e 00BF     		.section	.text.I2C_FastModeDutyCycleConfig,"ax",%progbits
 18828              		.align	2
 18829              		.global	I2C_FastModeDutyCycleConfig
 18830              		.thumb
 18831              		.thumb_func
 18833              	I2C_FastModeDutyCycleConfig:
 18834              	.LFB55:
 880:../StdPeripheralDriver/src/stm32f10x_i2c.c **** 
 881:../StdPeripheralDriver/src/stm32f10x_i2c.c **** /**
 882:../StdPeripheralDriver/src/stm32f10x_i2c.c ****   * @brief  Selects the specified I2C fast mode duty cycle.
 883:../StdPeripheralDriver/src/stm32f10x_i2c.c ****   * @param  I2Cx: where x can be 1 or 2 to select the I2C peripheral.
 884:../StdPeripheralDriver/src/stm32f10x_i2c.c ****   * @param  I2C_DutyCycle: specifies the fast mode duty cycle.
 885:../StdPeripheralDriver/src/stm32f10x_i2c.c ****   *   This parameter can be one of the following values:
 886:../StdPeripheralDriver/src/stm32f10x_i2c.c ****   *     @arg I2C_DutyCycle_2: I2C fast mode Tlow/Thigh = 2
 887:../StdPeripheralDriver/src/stm32f10x_i2c.c ****   *     @arg I2C_DutyCycle_16_9: I2C fast mode Tlow/Thigh = 16/9
 888:../StdPeripheralDriver/src/stm32f10x_i2c.c ****   * @retval None
 889:../StdPeripheralDriver/src/stm32f10x_i2c.c ****   */
 890:../StdPeripheralDriver/src/stm32f10x_i2c.c **** void I2C_FastModeDutyCycleConfig(I2C_TypeDef* I2Cx, uint16_t I2C_DutyCycle)
 891:../StdPeripheralDriver/src/stm32f10x_i2c.c **** {
 18835              		.loc 1 891 0
 18836              		.cfi_startproc
 18837              		@ args = 0, pretend = 0, frame = 8
 18838              		@ frame_needed = 1, uses_anonymous_args = 0
 18839              		@ link register save eliminated.
 18840 0000 80B4     		push	{r7}
 18841              	.LCFI78:
 18842              		.cfi_def_cfa_offset 4
 18843 0002 83B0     		sub	sp, sp, #12
 18844              	.LCFI79:
 18845              		.cfi_def_cfa_offset 16
 18846 0004 00AF     		add	r7, sp, #0
 18847              		.cfi_offset 7, -4
 18848              	.LCFI80:
 18849              		.cfi_def_cfa_register 7
 18850 0006 7860     		str	r0, [r7, #4]
 18851 0008 0B46     		mov	r3, r1
 18852 000a 7B80     		strh	r3, [r7, #2]	@ movhi
 892:../StdPeripheralDriver/src/stm32f10x_i2c.c ****   /* Check the parameters */
 893:../StdPeripheralDriver/src/stm32f10x_i2c.c ****   assert_param(IS_I2C_ALL_PERIPH(I2Cx));
 894:../StdPeripheralDriver/src/stm32f10x_i2c.c ****   assert_param(IS_I2C_DUTY_CYCLE(I2C_DutyCycle));
 895:../StdPeripheralDriver/src/stm32f10x_i2c.c ****   if (I2C_DutyCycle != I2C_DutyCycle_16_9)
 18853              		.loc 1 895 0
 18854 000c 7B88     		ldrh	r3, [r7, #2]
 18855 000e B3F5804F 		cmp	r3, #16384
 18856 0012 08D0     		beq	.L76
 896:../StdPeripheralDriver/src/stm32f10x_i2c.c ****   {
 897:../StdPeripheralDriver/src/stm32f10x_i2c.c ****     /* I2C fast mode Tlow/Thigh=2 */
 898:../StdPeripheralDriver/src/stm32f10x_i2c.c ****     I2Cx->CCR &= I2C_DutyCycle_2;
 18857              		.loc 1 898 0
 18858 0014 7B68     		ldr	r3, [r7, #4]
 18859 0016 9B8B     		ldrh	r3, [r3, #28]	@ movhi
 18860 0018 9BB2     		uxth	r3, r3
 18861 001a 23F48043 		bic	r3, r3, #16384
 18862 001e 9AB2     		uxth	r2, r3
 18863 0020 7B68     		ldr	r3, [r7, #4]
 18864 0022 9A83     		strh	r2, [r3, #28]	@ movhi
 18865 0024 07E0     		b	.L75
 18866              	.L76:
 899:../StdPeripheralDriver/src/stm32f10x_i2c.c ****   }
 900:../StdPeripheralDriver/src/stm32f10x_i2c.c ****   else
 901:../StdPeripheralDriver/src/stm32f10x_i2c.c ****   {
 902:../StdPeripheralDriver/src/stm32f10x_i2c.c ****     /* I2C fast mode Tlow/Thigh=16/9 */
 903:../StdPeripheralDriver/src/stm32f10x_i2c.c ****     I2Cx->CCR |= I2C_DutyCycle_16_9;
 18867              		.loc 1 903 0
 18868 0026 7B68     		ldr	r3, [r7, #4]
 18869 0028 9B8B     		ldrh	r3, [r3, #28]	@ movhi
 18870 002a 9BB2     		uxth	r3, r3
 18871 002c 43F48043 		orr	r3, r3, #16384
 18872 0030 9AB2     		uxth	r2, r3
 18873 0032 7B68     		ldr	r3, [r7, #4]
 18874 0034 9A83     		strh	r2, [r3, #28]	@ movhi
 18875              	.L75:
 904:../StdPeripheralDriver/src/stm32f10x_i2c.c ****   }
 905:../StdPeripheralDriver/src/stm32f10x_i2c.c **** }
 18876              		.loc 1 905 0
 18877 0036 07F10C07 		add	r7, r7, #12
 18878 003a BD46     		mov	sp, r7
 18879 003c 80BC     		pop	{r7}
 18880 003e 7047     		bx	lr
 18881              		.cfi_endproc
 18882              	.LFE55:
 18884              		.section	.text.I2C_CheckEvent,"ax",%progbits
 18885              		.align	2
 18886              		.global	I2C_CheckEvent
 18887              		.thumb
 18888              		.thumb_func
 18890              	I2C_CheckEvent:
 18891              	.LFB56:
 906:../StdPeripheralDriver/src/stm32f10x_i2c.c **** 
 907:../StdPeripheralDriver/src/stm32f10x_i2c.c **** 
 908:../StdPeripheralDriver/src/stm32f10x_i2c.c **** 
 909:../StdPeripheralDriver/src/stm32f10x_i2c.c **** /**
 910:../StdPeripheralDriver/src/stm32f10x_i2c.c ****  * @brief
 911:../StdPeripheralDriver/src/stm32f10x_i2c.c ****  ****************************************************************************************
 912:../StdPeripheralDriver/src/stm32f10x_i2c.c ****  *
 913:../StdPeripheralDriver/src/stm32f10x_i2c.c ****  *                         I2C State Monitoring Functions
 914:../StdPeripheralDriver/src/stm32f10x_i2c.c ****  *                       
 915:../StdPeripheralDriver/src/stm32f10x_i2c.c ****  ****************************************************************************************   
 916:../StdPeripheralDriver/src/stm32f10x_i2c.c ****  * This I2C driver provides three different ways for I2C state monitoring
 917:../StdPeripheralDriver/src/stm32f10x_i2c.c ****  *  depending on the application requirements and constraints:
 918:../StdPeripheralDriver/src/stm32f10x_i2c.c ****  *        
 919:../StdPeripheralDriver/src/stm32f10x_i2c.c ****  *  
 920:../StdPeripheralDriver/src/stm32f10x_i2c.c ****  * 1) Basic state monitoring:
 921:../StdPeripheralDriver/src/stm32f10x_i2c.c ****  *    Using I2C_CheckEvent() function:
 922:../StdPeripheralDriver/src/stm32f10x_i2c.c ****  *    It compares the status registers (SR1 and SR2) content to a given event
 923:../StdPeripheralDriver/src/stm32f10x_i2c.c ****  *    (can be the combination of one or more flags).
 924:../StdPeripheralDriver/src/stm32f10x_i2c.c ****  *    It returns SUCCESS if the current status includes the given flags 
 925:../StdPeripheralDriver/src/stm32f10x_i2c.c ****  *    and returns ERROR if one or more flags are missing in the current status.
 926:../StdPeripheralDriver/src/stm32f10x_i2c.c ****  *    - When to use:
 927:../StdPeripheralDriver/src/stm32f10x_i2c.c ****  *      - This function is suitable for most applications as well as for startup 
 928:../StdPeripheralDriver/src/stm32f10x_i2c.c ****  *      activity since the events are fully described in the product reference manual 
 929:../StdPeripheralDriver/src/stm32f10x_i2c.c ****  *      (RM0008).
 930:../StdPeripheralDriver/src/stm32f10x_i2c.c ****  *      - It is also suitable for users who need to define their own events.
 931:../StdPeripheralDriver/src/stm32f10x_i2c.c ****  *    - Limitations:
 932:../StdPeripheralDriver/src/stm32f10x_i2c.c ****  *      - If an error occurs (ie. error flags are set besides to the monitored flags),
 933:../StdPeripheralDriver/src/stm32f10x_i2c.c ****  *        the I2C_CheckEvent() function may return SUCCESS despite the communication
 934:../StdPeripheralDriver/src/stm32f10x_i2c.c ****  *        hold or corrupted real state. 
 935:../StdPeripheralDriver/src/stm32f10x_i2c.c ****  *        In this case, it is advised to use error interrupts to monitor the error
 936:../StdPeripheralDriver/src/stm32f10x_i2c.c ****  *        events and handle them in the interrupt IRQ handler.
 937:../StdPeripheralDriver/src/stm32f10x_i2c.c ****  *        
 938:../StdPeripheralDriver/src/stm32f10x_i2c.c ****  *        @note 
 939:../StdPeripheralDriver/src/stm32f10x_i2c.c ****  *        For error management, it is advised to use the following functions:
 940:../StdPeripheralDriver/src/stm32f10x_i2c.c ****  *          - I2C_ITConfig() to configure and enable the error interrupts (I2C_IT_ERR).
 941:../StdPeripheralDriver/src/stm32f10x_i2c.c ****  *          - I2Cx_ER_IRQHandler() which is called when the error interrupt occurs.
 942:../StdPeripheralDriver/src/stm32f10x_i2c.c ****  *            Where x is the peripheral instance (I2C1, I2C2 ...)
 943:../StdPeripheralDriver/src/stm32f10x_i2c.c ****  *          - I2C_GetFlagStatus() or I2C_GetITStatus() to be called into I2Cx_ER_IRQHandler() 
 944:../StdPeripheralDriver/src/stm32f10x_i2c.c ****  *            in order to determine which error occured.
 945:../StdPeripheralDriver/src/stm32f10x_i2c.c ****  *          - I2C_ClearFlag() or I2C_ClearITPendingBit() and/or I2C_SoftwareResetCmd()
 946:../StdPeripheralDriver/src/stm32f10x_i2c.c ****  *            and/or I2C_GenerateStop() in order to clear the error flag and source,
 947:../StdPeripheralDriver/src/stm32f10x_i2c.c ****  *            and return to correct communication status.
 948:../StdPeripheralDriver/src/stm32f10x_i2c.c ****  *            
 949:../StdPeripheralDriver/src/stm32f10x_i2c.c ****  *
 950:../StdPeripheralDriver/src/stm32f10x_i2c.c ****  *  2) Advanced state monitoring:
 951:../StdPeripheralDriver/src/stm32f10x_i2c.c ****  *     Using the function I2C_GetLastEvent() which returns the image of both status 
 952:../StdPeripheralDriver/src/stm32f10x_i2c.c ****  *     registers in a single word (uint32_t) (Status Register 2 value is shifted left 
 953:../StdPeripheralDriver/src/stm32f10x_i2c.c ****  *     by 16 bits and concatenated to Status Register 1).
 954:../StdPeripheralDriver/src/stm32f10x_i2c.c ****  *     - When to use:
 955:../StdPeripheralDriver/src/stm32f10x_i2c.c ****  *       - This function is suitable for the same applications above but it allows to
 956:../StdPeripheralDriver/src/stm32f10x_i2c.c ****  *         overcome the mentioned limitation of I2C_GetFlagStatus() function.
 957:../StdPeripheralDriver/src/stm32f10x_i2c.c ****  *         The returned value could be compared to events already defined in the 
 958:../StdPeripheralDriver/src/stm32f10x_i2c.c ****  *         library (stm32f10x_i2c.h) or to custom values defined by user.
 959:../StdPeripheralDriver/src/stm32f10x_i2c.c ****  *       - This function is suitable when multiple flags are monitored at the same time.
 960:../StdPeripheralDriver/src/stm32f10x_i2c.c ****  *       - At the opposite of I2C_CheckEvent() function, this function allows user to
 961:../StdPeripheralDriver/src/stm32f10x_i2c.c ****  *         choose when an event is accepted (when all events flags are set and no 
 962:../StdPeripheralDriver/src/stm32f10x_i2c.c ****  *         other flags are set or just when the needed flags are set like 
 963:../StdPeripheralDriver/src/stm32f10x_i2c.c ****  *         I2C_CheckEvent() function).
 964:../StdPeripheralDriver/src/stm32f10x_i2c.c ****  *     - Limitations:
 965:../StdPeripheralDriver/src/stm32f10x_i2c.c ****  *       - User may need to define his own events.
 966:../StdPeripheralDriver/src/stm32f10x_i2c.c ****  *       - Same remark concerning the error management is applicable for this 
 967:../StdPeripheralDriver/src/stm32f10x_i2c.c ****  *         function if user decides to check only regular communication flags (and 
 968:../StdPeripheralDriver/src/stm32f10x_i2c.c ****  *         ignores error flags).
 969:../StdPeripheralDriver/src/stm32f10x_i2c.c ****  *     
 970:../StdPeripheralDriver/src/stm32f10x_i2c.c ****  *
 971:../StdPeripheralDriver/src/stm32f10x_i2c.c ****  *  3) Flag-based state monitoring:
 972:../StdPeripheralDriver/src/stm32f10x_i2c.c ****  *     Using the function I2C_GetFlagStatus() which simply returns the status of 
 973:../StdPeripheralDriver/src/stm32f10x_i2c.c ****  *     one single flag (ie. I2C_FLAG_RXNE ...). 
 974:../StdPeripheralDriver/src/stm32f10x_i2c.c ****  *     - When to use:
 975:../StdPeripheralDriver/src/stm32f10x_i2c.c ****  *        - This function could be used for specific applications or in debug phase.
 976:../StdPeripheralDriver/src/stm32f10x_i2c.c ****  *        - It is suitable when only one flag checking is needed (most I2C events 
 977:../StdPeripheralDriver/src/stm32f10x_i2c.c ****  *          are monitored through multiple flags).
 978:../StdPeripheralDriver/src/stm32f10x_i2c.c ****  *     - Limitations: 
 979:../StdPeripheralDriver/src/stm32f10x_i2c.c ****  *        - When calling this function, the Status register is accessed. Some flags are
 980:../StdPeripheralDriver/src/stm32f10x_i2c.c ****  *          cleared when the status register is accessed. So checking the status
 981:../StdPeripheralDriver/src/stm32f10x_i2c.c ****  *          of one Flag, may clear other ones.
 982:../StdPeripheralDriver/src/stm32f10x_i2c.c ****  *        - Function may need to be called twice or more in order to monitor one 
 983:../StdPeripheralDriver/src/stm32f10x_i2c.c ****  *          single event.
 984:../StdPeripheralDriver/src/stm32f10x_i2c.c ****  *
 985:../StdPeripheralDriver/src/stm32f10x_i2c.c ****  *  For detailed description of Events, please refer to section I2C_Events in 
 986:../StdPeripheralDriver/src/stm32f10x_i2c.c ****  *  stm32f10x_i2c.h file.
 987:../StdPeripheralDriver/src/stm32f10x_i2c.c ****  *  
 988:../StdPeripheralDriver/src/stm32f10x_i2c.c ****  */
 989:../StdPeripheralDriver/src/stm32f10x_i2c.c **** 
 990:../StdPeripheralDriver/src/stm32f10x_i2c.c **** /**
 991:../StdPeripheralDriver/src/stm32f10x_i2c.c ****  * 
 992:../StdPeripheralDriver/src/stm32f10x_i2c.c ****  *  1) Basic state monitoring
 993:../StdPeripheralDriver/src/stm32f10x_i2c.c ****  *******************************************************************************
 994:../StdPeripheralDriver/src/stm32f10x_i2c.c ****  */
 995:../StdPeripheralDriver/src/stm32f10x_i2c.c **** 
 996:../StdPeripheralDriver/src/stm32f10x_i2c.c **** /**
 997:../StdPeripheralDriver/src/stm32f10x_i2c.c ****   * @brief  Checks whether the last I2Cx Event is equal to the one passed
 998:../StdPeripheralDriver/src/stm32f10x_i2c.c ****   *   as parameter.
 999:../StdPeripheralDriver/src/stm32f10x_i2c.c ****   * @param  I2Cx: where x can be 1 or 2 to select the I2C peripheral.
1000:../StdPeripheralDriver/src/stm32f10x_i2c.c ****   * @param  I2C_EVENT: specifies the event to be checked. 
1001:../StdPeripheralDriver/src/stm32f10x_i2c.c ****   *   This parameter can be one of the following values:
1002:../StdPeripheralDriver/src/stm32f10x_i2c.c ****   *     @arg I2C_EVENT_SLAVE_TRANSMITTER_ADDRESS_MATCHED           : EV1
1003:../StdPeripheralDriver/src/stm32f10x_i2c.c ****   *     @arg I2C_EVENT_SLAVE_RECEIVER_ADDRESS_MATCHED              : EV1
1004:../StdPeripheralDriver/src/stm32f10x_i2c.c ****   *     @arg I2C_EVENT_SLAVE_TRANSMITTER_SECONDADDRESS_MATCHED     : EV1
1005:../StdPeripheralDriver/src/stm32f10x_i2c.c ****   *     @arg I2C_EVENT_SLAVE_RECEIVER_SECONDADDRESS_MATCHED        : EV1
1006:../StdPeripheralDriver/src/stm32f10x_i2c.c ****   *     @arg I2C_EVENT_SLAVE_GENERALCALLADDRESS_MATCHED            : EV1
1007:../StdPeripheralDriver/src/stm32f10x_i2c.c ****   *     @arg I2C_EVENT_SLAVE_BYTE_RECEIVED                         : EV2
1008:../StdPeripheralDriver/src/stm32f10x_i2c.c ****   *     @arg (I2C_EVENT_SLAVE_BYTE_RECEIVED | I2C_FLAG_DUALF)      : EV2
1009:../StdPeripheralDriver/src/stm32f10x_i2c.c ****   *     @arg (I2C_EVENT_SLAVE_BYTE_RECEIVED | I2C_FLAG_GENCALL)    : EV2
1010:../StdPeripheralDriver/src/stm32f10x_i2c.c ****   *     @arg I2C_EVENT_SLAVE_BYTE_TRANSMITTED                      : EV3
1011:../StdPeripheralDriver/src/stm32f10x_i2c.c ****   *     @arg (I2C_EVENT_SLAVE_BYTE_TRANSMITTED | I2C_FLAG_DUALF)   : EV3
1012:../StdPeripheralDriver/src/stm32f10x_i2c.c ****   *     @arg (I2C_EVENT_SLAVE_BYTE_TRANSMITTED | I2C_FLAG_GENCALL) : EV3
1013:../StdPeripheralDriver/src/stm32f10x_i2c.c ****   *     @arg I2C_EVENT_SLAVE_ACK_FAILURE                           : EV3_2
1014:../StdPeripheralDriver/src/stm32f10x_i2c.c ****   *     @arg I2C_EVENT_SLAVE_STOP_DETECTED                         : EV4
1015:../StdPeripheralDriver/src/stm32f10x_i2c.c ****   *     @arg I2C_EVENT_MASTER_MODE_SELECT                          : EV5
1016:../StdPeripheralDriver/src/stm32f10x_i2c.c ****   *     @arg I2C_EVENT_MASTER_TRANSMITTER_MODE_SELECTED            : EV6     
1017:../StdPeripheralDriver/src/stm32f10x_i2c.c ****   *     @arg I2C_EVENT_MASTER_RECEIVER_MODE_SELECTED               : EV6
1018:../StdPeripheralDriver/src/stm32f10x_i2c.c ****   *     @arg I2C_EVENT_MASTER_BYTE_RECEIVED                        : EV7
1019:../StdPeripheralDriver/src/stm32f10x_i2c.c ****   *     @arg I2C_EVENT_MASTER_BYTE_TRANSMITTING                    : EV8
1020:../StdPeripheralDriver/src/stm32f10x_i2c.c ****   *     @arg I2C_EVENT_MASTER_BYTE_TRANSMITTED                     : EV8_2
1021:../StdPeripheralDriver/src/stm32f10x_i2c.c ****   *     @arg I2C_EVENT_MASTER_MODE_ADDRESS10                       : EV9
1022:../StdPeripheralDriver/src/stm32f10x_i2c.c ****   *     
1023:../StdPeripheralDriver/src/stm32f10x_i2c.c ****   * @note: For detailed description of Events, please refer to section 
1024:../StdPeripheralDriver/src/stm32f10x_i2c.c ****   *    I2C_Events in stm32f10x_i2c.h file.
1025:../StdPeripheralDriver/src/stm32f10x_i2c.c ****   *    
1026:../StdPeripheralDriver/src/stm32f10x_i2c.c ****   * @retval An ErrorStatus enumeration value:
1027:../StdPeripheralDriver/src/stm32f10x_i2c.c ****   * - SUCCESS: Last event is equal to the I2C_EVENT
1028:../StdPeripheralDriver/src/stm32f10x_i2c.c ****   * - ERROR: Last event is different from the I2C_EVENT
1029:../StdPeripheralDriver/src/stm32f10x_i2c.c ****   */
1030:../StdPeripheralDriver/src/stm32f10x_i2c.c **** ErrorStatus I2C_CheckEvent(I2C_TypeDef* I2Cx, uint32_t I2C_EVENT)
1031:../StdPeripheralDriver/src/stm32f10x_i2c.c **** {
 18892              		.loc 1 1031 0
 18893              		.cfi_startproc
 18894              		@ args = 0, pretend = 0, frame = 24
 18895              		@ frame_needed = 1, uses_anonymous_args = 0
 18896              		@ link register save eliminated.
 18897 0000 80B4     		push	{r7}
 18898              	.LCFI81:
 18899              		.cfi_def_cfa_offset 4
 18900 0002 87B0     		sub	sp, sp, #28
 18901              	.LCFI82:
 18902              		.cfi_def_cfa_offset 32
 18903 0004 00AF     		add	r7, sp, #0
 18904              		.cfi_offset 7, -4
 18905              	.LCFI83:
 18906              		.cfi_def_cfa_register 7
 18907 0006 7860     		str	r0, [r7, #4]
 18908 0008 3960     		str	r1, [r7, #0]
1032:../StdPeripheralDriver/src/stm32f10x_i2c.c ****   uint32_t lastevent = 0;
 18909              		.loc 1 1032 0
 18910 000a 4FF00003 		mov	r3, #0
 18911 000e 3B61     		str	r3, [r7, #16]
1033:../StdPeripheralDriver/src/stm32f10x_i2c.c ****   uint32_t flag1 = 0, flag2 = 0;
 18912              		.loc 1 1033 0
 18913 0010 4FF00003 		mov	r3, #0
 18914 0014 FB60     		str	r3, [r7, #12]
 18915 0016 4FF00003 		mov	r3, #0
 18916 001a BB60     		str	r3, [r7, #8]
1034:../StdPeripheralDriver/src/stm32f10x_i2c.c ****   ErrorStatus status = ERROR;
 18917              		.loc 1 1034 0
 18918 001c 4FF00003 		mov	r3, #0
 18919 0020 FB75     		strb	r3, [r7, #23]
1035:../StdPeripheralDriver/src/stm32f10x_i2c.c **** 
1036:../StdPeripheralDriver/src/stm32f10x_i2c.c ****   /* Check the parameters */
1037:../StdPeripheralDriver/src/stm32f10x_i2c.c ****   assert_param(IS_I2C_ALL_PERIPH(I2Cx));
1038:../StdPeripheralDriver/src/stm32f10x_i2c.c ****   assert_param(IS_I2C_EVENT(I2C_EVENT));
1039:../StdPeripheralDriver/src/stm32f10x_i2c.c **** 
1040:../StdPeripheralDriver/src/stm32f10x_i2c.c ****   /* Read the I2Cx status register */
1041:../StdPeripheralDriver/src/stm32f10x_i2c.c ****   flag1 = I2Cx->SR1;
 18920              		.loc 1 1041 0
 18921 0022 7B68     		ldr	r3, [r7, #4]
 18922 0024 9B8A     		ldrh	r3, [r3, #20]	@ movhi
 18923 0026 9BB2     		uxth	r3, r3
 18924 0028 FB60     		str	r3, [r7, #12]
1042:../StdPeripheralDriver/src/stm32f10x_i2c.c ****   flag2 = I2Cx->SR2;
 18925              		.loc 1 1042 0
 18926 002a 7B68     		ldr	r3, [r7, #4]
 18927 002c 1B8B     		ldrh	r3, [r3, #24]	@ movhi
 18928 002e 9BB2     		uxth	r3, r3
 18929 0030 BB60     		str	r3, [r7, #8]
1043:../StdPeripheralDriver/src/stm32f10x_i2c.c ****   flag2 = flag2 << 16;
 18930              		.loc 1 1043 0
 18931 0032 BB68     		ldr	r3, [r7, #8]
 18932 0034 4FEA0343 		lsl	r3, r3, #16
 18933 0038 BB60     		str	r3, [r7, #8]
1044:../StdPeripheralDriver/src/stm32f10x_i2c.c **** 
1045:../StdPeripheralDriver/src/stm32f10x_i2c.c ****   /* Get the last event value from I2C status register */
1046:../StdPeripheralDriver/src/stm32f10x_i2c.c ****   lastevent = (flag1 | flag2) & FLAG_Mask;
 18934              		.loc 1 1046 0
 18935 003a FA68     		ldr	r2, [r7, #12]
 18936 003c BB68     		ldr	r3, [r7, #8]
 18937 003e 42EA0303 		orr	r3, r2, r3
 18938 0042 23F07F43 		bic	r3, r3, #-16777216
 18939 0046 3B61     		str	r3, [r7, #16]
1047:../StdPeripheralDriver/src/stm32f10x_i2c.c **** 
1048:../StdPeripheralDriver/src/stm32f10x_i2c.c ****   /* Check whether the last event contains the I2C_EVENT */
1049:../StdPeripheralDriver/src/stm32f10x_i2c.c ****   if ((lastevent & I2C_EVENT) == I2C_EVENT)
 18940              		.loc 1 1049 0
 18941 0048 3A69     		ldr	r2, [r7, #16]
 18942 004a 3B68     		ldr	r3, [r7, #0]
 18943 004c 1A40     		ands	r2, r2, r3
 18944 004e 3B68     		ldr	r3, [r7, #0]
 18945 0050 9A42     		cmp	r2, r3
 18946 0052 03D1     		bne	.L79
1050:../StdPeripheralDriver/src/stm32f10x_i2c.c ****   {
1051:../StdPeripheralDriver/src/stm32f10x_i2c.c ****     /* SUCCESS: last event is equal to I2C_EVENT */
1052:../StdPeripheralDriver/src/stm32f10x_i2c.c ****     status = SUCCESS;
 18947              		.loc 1 1052 0
 18948 0054 4FF00103 		mov	r3, #1
 18949 0058 FB75     		strb	r3, [r7, #23]
 18950 005a 02E0     		b	.L80
 18951              	.L79:
1053:../StdPeripheralDriver/src/stm32f10x_i2c.c ****   }
1054:../StdPeripheralDriver/src/stm32f10x_i2c.c ****   else
1055:../StdPeripheralDriver/src/stm32f10x_i2c.c ****   {
1056:../StdPeripheralDriver/src/stm32f10x_i2c.c ****     /* ERROR: last event is different from I2C_EVENT */
1057:../StdPeripheralDriver/src/stm32f10x_i2c.c ****     status = ERROR;
 18952              		.loc 1 1057 0
 18953 005c 4FF00003 		mov	r3, #0
 18954 0060 FB75     		strb	r3, [r7, #23]
 18955              	.L80:
1058:../StdPeripheralDriver/src/stm32f10x_i2c.c ****   }
1059:../StdPeripheralDriver/src/stm32f10x_i2c.c ****   /* Return status */
1060:../StdPeripheralDriver/src/stm32f10x_i2c.c ****   return status;
 18956              		.loc 1 1060 0
 18957 0062 FB7D     		ldrb	r3, [r7, #23]	@ zero_extendqisi2
1061:../StdPeripheralDriver/src/stm32f10x_i2c.c **** }
 18958              		.loc 1 1061 0
 18959 0064 1846     		mov	r0, r3
 18960 0066 07F11C07 		add	r7, r7, #28
 18961 006a BD46     		mov	sp, r7
 18962 006c 80BC     		pop	{r7}
 18963 006e 7047     		bx	lr
 18964              		.cfi_endproc
 18965              	.LFE56:
 18967              		.section	.text.I2C_GetLastEvent,"ax",%progbits
 18968              		.align	2
 18969              		.global	I2C_GetLastEvent
 18970              		.thumb
 18971              		.thumb_func
 18973              	I2C_GetLastEvent:
 18974              	.LFB57:
1062:../StdPeripheralDriver/src/stm32f10x_i2c.c **** 
1063:../StdPeripheralDriver/src/stm32f10x_i2c.c **** /**
1064:../StdPeripheralDriver/src/stm32f10x_i2c.c ****  * 
1065:../StdPeripheralDriver/src/stm32f10x_i2c.c ****  *  2) Advanced state monitoring
1066:../StdPeripheralDriver/src/stm32f10x_i2c.c ****  *******************************************************************************
1067:../StdPeripheralDriver/src/stm32f10x_i2c.c ****  */
1068:../StdPeripheralDriver/src/stm32f10x_i2c.c **** 
1069:../StdPeripheralDriver/src/stm32f10x_i2c.c **** /**
1070:../StdPeripheralDriver/src/stm32f10x_i2c.c ****   * @brief  Returns the last I2Cx Event.
1071:../StdPeripheralDriver/src/stm32f10x_i2c.c ****   * @param  I2Cx: where x can be 1 or 2 to select the I2C peripheral.
1072:../StdPeripheralDriver/src/stm32f10x_i2c.c ****   *     
1073:../StdPeripheralDriver/src/stm32f10x_i2c.c ****   * @note: For detailed description of Events, please refer to section 
1074:../StdPeripheralDriver/src/stm32f10x_i2c.c ****   *    I2C_Events in stm32f10x_i2c.h file.
1075:../StdPeripheralDriver/src/stm32f10x_i2c.c ****   *    
1076:../StdPeripheralDriver/src/stm32f10x_i2c.c ****   * @retval The last event
1077:../StdPeripheralDriver/src/stm32f10x_i2c.c ****   */
1078:../StdPeripheralDriver/src/stm32f10x_i2c.c **** uint32_t I2C_GetLastEvent(I2C_TypeDef* I2Cx)
1079:../StdPeripheralDriver/src/stm32f10x_i2c.c **** {
 18975              		.loc 1 1079 0
 18976              		.cfi_startproc
 18977              		@ args = 0, pretend = 0, frame = 24
 18978              		@ frame_needed = 1, uses_anonymous_args = 0
 18979              		@ link register save eliminated.
 18980 0000 80B4     		push	{r7}
 18981              	.LCFI84:
 18982              		.cfi_def_cfa_offset 4
 18983 0002 87B0     		sub	sp, sp, #28
 18984              	.LCFI85:
 18985              		.cfi_def_cfa_offset 32
 18986 0004 00AF     		add	r7, sp, #0
 18987              		.cfi_offset 7, -4
 18988              	.LCFI86:
 18989              		.cfi_def_cfa_register 7
 18990 0006 7860     		str	r0, [r7, #4]
1080:../StdPeripheralDriver/src/stm32f10x_i2c.c ****   uint32_t lastevent = 0;
 18991              		.loc 1 1080 0
 18992 0008 4FF00003 		mov	r3, #0
 18993 000c 7B61     		str	r3, [r7, #20]
1081:../StdPeripheralDriver/src/stm32f10x_i2c.c ****   uint32_t flag1 = 0, flag2 = 0;
 18994              		.loc 1 1081 0
 18995 000e 4FF00003 		mov	r3, #0
 18996 0012 3B61     		str	r3, [r7, #16]
 18997 0014 4FF00003 		mov	r3, #0
 18998 0018 FB60     		str	r3, [r7, #12]
1082:../StdPeripheralDriver/src/stm32f10x_i2c.c **** 
1083:../StdPeripheralDriver/src/stm32f10x_i2c.c ****   /* Check the parameters */
1084:../StdPeripheralDriver/src/stm32f10x_i2c.c ****   assert_param(IS_I2C_ALL_PERIPH(I2Cx));
1085:../StdPeripheralDriver/src/stm32f10x_i2c.c **** 
1086:../StdPeripheralDriver/src/stm32f10x_i2c.c ****   /* Read the I2Cx status register */
1087:../StdPeripheralDriver/src/stm32f10x_i2c.c ****   flag1 = I2Cx->SR1;
 18999              		.loc 1 1087 0
 19000 001a 7B68     		ldr	r3, [r7, #4]
 19001 001c 9B8A     		ldrh	r3, [r3, #20]	@ movhi
 19002 001e 9BB2     		uxth	r3, r3
 19003 0020 3B61     		str	r3, [r7, #16]
1088:../StdPeripheralDriver/src/stm32f10x_i2c.c ****   flag2 = I2Cx->SR2;
 19004              		.loc 1 1088 0
 19005 0022 7B68     		ldr	r3, [r7, #4]
 19006 0024 1B8B     		ldrh	r3, [r3, #24]	@ movhi
 19007 0026 9BB2     		uxth	r3, r3
 19008 0028 FB60     		str	r3, [r7, #12]
1089:../StdPeripheralDriver/src/stm32f10x_i2c.c ****   flag2 = flag2 << 16;
 19009              		.loc 1 1089 0
 19010 002a FB68     		ldr	r3, [r7, #12]
 19011 002c 4FEA0343 		lsl	r3, r3, #16
 19012 0030 FB60     		str	r3, [r7, #12]
1090:../StdPeripheralDriver/src/stm32f10x_i2c.c **** 
1091:../StdPeripheralDriver/src/stm32f10x_i2c.c ****   /* Get the last event value from I2C status register */
1092:../StdPeripheralDriver/src/stm32f10x_i2c.c ****   lastevent = (flag1 | flag2) & FLAG_Mask;
 19013              		.loc 1 1092 0
 19014 0032 3A69     		ldr	r2, [r7, #16]
 19015 0034 FB68     		ldr	r3, [r7, #12]
 19016 0036 42EA0303 		orr	r3, r2, r3
 19017 003a 23F07F43 		bic	r3, r3, #-16777216
 19018 003e 7B61     		str	r3, [r7, #20]
1093:../StdPeripheralDriver/src/stm32f10x_i2c.c **** 
1094:../StdPeripheralDriver/src/stm32f10x_i2c.c ****   /* Return status */
1095:../StdPeripheralDriver/src/stm32f10x_i2c.c ****   return lastevent;
 19019              		.loc 1 1095 0
 19020 0040 7B69     		ldr	r3, [r7, #20]
1096:../StdPeripheralDriver/src/stm32f10x_i2c.c **** }
 19021              		.loc 1 1096 0
 19022 0042 1846     		mov	r0, r3
 19023 0044 07F11C07 		add	r7, r7, #28
 19024 0048 BD46     		mov	sp, r7
 19025 004a 80BC     		pop	{r7}
 19026 004c 7047     		bx	lr
 19027              		.cfi_endproc
 19028              	.LFE57:
 19030 004e 00BF     		.section	.text.I2C_GetFlagStatus,"ax",%progbits
 19031              		.align	2
 19032              		.global	I2C_GetFlagStatus
 19033              		.thumb
 19034              		.thumb_func
 19036              	I2C_GetFlagStatus:
 19037              	.LFB58:
1097:../StdPeripheralDriver/src/stm32f10x_i2c.c **** 
1098:../StdPeripheralDriver/src/stm32f10x_i2c.c **** /**
1099:../StdPeripheralDriver/src/stm32f10x_i2c.c ****  * 
1100:../StdPeripheralDriver/src/stm32f10x_i2c.c ****  *  3) Flag-based state monitoring
1101:../StdPeripheralDriver/src/stm32f10x_i2c.c ****  *******************************************************************************
1102:../StdPeripheralDriver/src/stm32f10x_i2c.c ****  */
1103:../StdPeripheralDriver/src/stm32f10x_i2c.c **** 
1104:../StdPeripheralDriver/src/stm32f10x_i2c.c **** /**
1105:../StdPeripheralDriver/src/stm32f10x_i2c.c ****   * @brief  Checks whether the specified I2C flag is set or not.
1106:../StdPeripheralDriver/src/stm32f10x_i2c.c ****   * @param  I2Cx: where x can be 1 or 2 to select the I2C peripheral.
1107:../StdPeripheralDriver/src/stm32f10x_i2c.c ****   * @param  I2C_FLAG: specifies the flag to check. 
1108:../StdPeripheralDriver/src/stm32f10x_i2c.c ****   *   This parameter can be one of the following values:
1109:../StdPeripheralDriver/src/stm32f10x_i2c.c ****   *     @arg I2C_FLAG_DUALF: Dual flag (Slave mode)
1110:../StdPeripheralDriver/src/stm32f10x_i2c.c ****   *     @arg I2C_FLAG_SMBHOST: SMBus host header (Slave mode)
1111:../StdPeripheralDriver/src/stm32f10x_i2c.c ****   *     @arg I2C_FLAG_SMBDEFAULT: SMBus default header (Slave mode)
1112:../StdPeripheralDriver/src/stm32f10x_i2c.c ****   *     @arg I2C_FLAG_GENCALL: General call header flag (Slave mode)
1113:../StdPeripheralDriver/src/stm32f10x_i2c.c ****   *     @arg I2C_FLAG_TRA: Transmitter/Receiver flag
1114:../StdPeripheralDriver/src/stm32f10x_i2c.c ****   *     @arg I2C_FLAG_BUSY: Bus busy flag
1115:../StdPeripheralDriver/src/stm32f10x_i2c.c ****   *     @arg I2C_FLAG_MSL: Master/Slave flag
1116:../StdPeripheralDriver/src/stm32f10x_i2c.c ****   *     @arg I2C_FLAG_SMBALERT: SMBus Alert flag
1117:../StdPeripheralDriver/src/stm32f10x_i2c.c ****   *     @arg I2C_FLAG_TIMEOUT: Timeout or Tlow error flag
1118:../StdPeripheralDriver/src/stm32f10x_i2c.c ****   *     @arg I2C_FLAG_PECERR: PEC error in reception flag
1119:../StdPeripheralDriver/src/stm32f10x_i2c.c ****   *     @arg I2C_FLAG_OVR: Overrun/Underrun flag (Slave mode)
1120:../StdPeripheralDriver/src/stm32f10x_i2c.c ****   *     @arg I2C_FLAG_AF: Acknowledge failure flag
1121:../StdPeripheralDriver/src/stm32f10x_i2c.c ****   *     @arg I2C_FLAG_ARLO: Arbitration lost flag (Master mode)
1122:../StdPeripheralDriver/src/stm32f10x_i2c.c ****   *     @arg I2C_FLAG_BERR: Bus error flag
1123:../StdPeripheralDriver/src/stm32f10x_i2c.c ****   *     @arg I2C_FLAG_TXE: Data register empty flag (Transmitter)
1124:../StdPeripheralDriver/src/stm32f10x_i2c.c ****   *     @arg I2C_FLAG_RXNE: Data register not empty (Receiver) flag
1125:../StdPeripheralDriver/src/stm32f10x_i2c.c ****   *     @arg I2C_FLAG_STOPF: Stop detection flag (Slave mode)
1126:../StdPeripheralDriver/src/stm32f10x_i2c.c ****   *     @arg I2C_FLAG_ADD10: 10-bit header sent flag (Master mode)
1127:../StdPeripheralDriver/src/stm32f10x_i2c.c ****   *     @arg I2C_FLAG_BTF: Byte transfer finished flag
1128:../StdPeripheralDriver/src/stm32f10x_i2c.c ****   *     @arg I2C_FLAG_ADDR: Address sent flag (Master mode) "ADSL"
1129:../StdPeripheralDriver/src/stm32f10x_i2c.c ****   *   Address matched flag (Slave mode)"ENDA"
1130:../StdPeripheralDriver/src/stm32f10x_i2c.c ****   *     @arg I2C_FLAG_SB: Start bit flag (Master mode)
1131:../StdPeripheralDriver/src/stm32f10x_i2c.c ****   * @retval The new state of I2C_FLAG (SET or RESET).
1132:../StdPeripheralDriver/src/stm32f10x_i2c.c ****   */
1133:../StdPeripheralDriver/src/stm32f10x_i2c.c **** FlagStatus I2C_GetFlagStatus(I2C_TypeDef* I2Cx, uint32_t I2C_FLAG)
1134:../StdPeripheralDriver/src/stm32f10x_i2c.c **** {
 19038              		.loc 1 1134 0
 19039              		.cfi_startproc
 19040              		@ args = 0, pretend = 0, frame = 24
 19041              		@ frame_needed = 1, uses_anonymous_args = 0
 19042              		@ link register save eliminated.
 19043 0000 80B4     		push	{r7}
 19044              	.LCFI87:
 19045              		.cfi_def_cfa_offset 4
 19046 0002 87B0     		sub	sp, sp, #28
 19047              	.LCFI88:
 19048              		.cfi_def_cfa_offset 32
 19049 0004 00AF     		add	r7, sp, #0
 19050              		.cfi_offset 7, -4
 19051              	.LCFI89:
 19052              		.cfi_def_cfa_register 7
 19053 0006 7860     		str	r0, [r7, #4]
 19054 0008 3960     		str	r1, [r7, #0]
1135:../StdPeripheralDriver/src/stm32f10x_i2c.c ****   FlagStatus bitstatus = RESET;
 19055              		.loc 1 1135 0
 19056 000a 4FF00003 		mov	r3, #0
 19057 000e FB75     		strb	r3, [r7, #23]
1136:../StdPeripheralDriver/src/stm32f10x_i2c.c ****   __IO uint32_t i2creg = 0, i2cxbase = 0;
 19058              		.loc 1 1136 0
 19059 0010 4FF00003 		mov	r3, #0
 19060 0014 3B61     		str	r3, [r7, #16]
 19061 0016 4FF00003 		mov	r3, #0
 19062 001a FB60     		str	r3, [r7, #12]
1137:../StdPeripheralDriver/src/stm32f10x_i2c.c **** 
1138:../StdPeripheralDriver/src/stm32f10x_i2c.c ****   /* Check the parameters */
1139:../StdPeripheralDriver/src/stm32f10x_i2c.c ****   assert_param(IS_I2C_ALL_PERIPH(I2Cx));
1140:../StdPeripheralDriver/src/stm32f10x_i2c.c ****   assert_param(IS_I2C_GET_FLAG(I2C_FLAG));
1141:../StdPeripheralDriver/src/stm32f10x_i2c.c **** 
1142:../StdPeripheralDriver/src/stm32f10x_i2c.c ****   /* Get the I2Cx peripheral base address */
1143:../StdPeripheralDriver/src/stm32f10x_i2c.c ****   i2cxbase = (uint32_t)I2Cx;
 19063              		.loc 1 1143 0
 19064 001c 7B68     		ldr	r3, [r7, #4]
 19065 001e FB60     		str	r3, [r7, #12]
1144:../StdPeripheralDriver/src/stm32f10x_i2c.c ****   
1145:../StdPeripheralDriver/src/stm32f10x_i2c.c ****   /* Read flag register index */
1146:../StdPeripheralDriver/src/stm32f10x_i2c.c ****   i2creg = I2C_FLAG >> 28;
 19066              		.loc 1 1146 0
 19067 0020 3B68     		ldr	r3, [r7, #0]
 19068 0022 4FEA1373 		lsr	r3, r3, #28
 19069 0026 3B61     		str	r3, [r7, #16]
1147:../StdPeripheralDriver/src/stm32f10x_i2c.c ****   
1148:../StdPeripheralDriver/src/stm32f10x_i2c.c ****   /* Get bit[23:0] of the flag */
1149:../StdPeripheralDriver/src/stm32f10x_i2c.c ****   I2C_FLAG &= FLAG_Mask;
 19070              		.loc 1 1149 0
 19071 0028 3B68     		ldr	r3, [r7, #0]
 19072 002a 23F07F43 		bic	r3, r3, #-16777216
 19073 002e 3B60     		str	r3, [r7, #0]
1150:../StdPeripheralDriver/src/stm32f10x_i2c.c ****   
1151:../StdPeripheralDriver/src/stm32f10x_i2c.c ****   if(i2creg != 0)
 19074              		.loc 1 1151 0
 19075 0030 3B69     		ldr	r3, [r7, #16]
 19076 0032 002B     		cmp	r3, #0
 19077 0034 04D0     		beq	.L83
1152:../StdPeripheralDriver/src/stm32f10x_i2c.c ****   {
1153:../StdPeripheralDriver/src/stm32f10x_i2c.c ****     /* Get the I2Cx SR1 register address */
1154:../StdPeripheralDriver/src/stm32f10x_i2c.c ****     i2cxbase += 0x14;
 19078              		.loc 1 1154 0
 19079 0036 FB68     		ldr	r3, [r7, #12]
 19080 0038 03F11403 		add	r3, r3, #20
 19081 003c FB60     		str	r3, [r7, #12]
 19082 003e 07E0     		b	.L84
 19083              	.L83:
1155:../StdPeripheralDriver/src/stm32f10x_i2c.c ****   }
1156:../StdPeripheralDriver/src/stm32f10x_i2c.c ****   else
1157:../StdPeripheralDriver/src/stm32f10x_i2c.c ****   {
1158:../StdPeripheralDriver/src/stm32f10x_i2c.c ****     /* Flag in I2Cx SR2 Register */
1159:../StdPeripheralDriver/src/stm32f10x_i2c.c ****     I2C_FLAG = (uint32_t)(I2C_FLAG >> 16);
 19084              		.loc 1 1159 0
 19085 0040 3B68     		ldr	r3, [r7, #0]
 19086 0042 4FEA1343 		lsr	r3, r3, #16
 19087 0046 3B60     		str	r3, [r7, #0]
1160:../StdPeripheralDriver/src/stm32f10x_i2c.c ****     /* Get the I2Cx SR2 register address */
1161:../StdPeripheralDriver/src/stm32f10x_i2c.c ****     i2cxbase += 0x18;
 19088              		.loc 1 1161 0
 19089 0048 FB68     		ldr	r3, [r7, #12]
 19090 004a 03F11803 		add	r3, r3, #24
 19091 004e FB60     		str	r3, [r7, #12]
 19092              	.L84:
1162:../StdPeripheralDriver/src/stm32f10x_i2c.c ****   }
1163:../StdPeripheralDriver/src/stm32f10x_i2c.c ****   
1164:../StdPeripheralDriver/src/stm32f10x_i2c.c ****   if(((*(__IO uint32_t *)i2cxbase) & I2C_FLAG) != (uint32_t)RESET)
 19093              		.loc 1 1164 0
 19094 0050 FB68     		ldr	r3, [r7, #12]
 19095 0052 1A68     		ldr	r2, [r3, #0]
 19096 0054 3B68     		ldr	r3, [r7, #0]
 19097 0056 02EA0303 		and	r3, r2, r3
 19098 005a 002B     		cmp	r3, #0
 19099 005c 03D0     		beq	.L85
1165:../StdPeripheralDriver/src/stm32f10x_i2c.c ****   {
1166:../StdPeripheralDriver/src/stm32f10x_i2c.c ****     /* I2C_FLAG is set */
1167:../StdPeripheralDriver/src/stm32f10x_i2c.c ****     bitstatus = SET;
 19100              		.loc 1 1167 0
 19101 005e 4FF00103 		mov	r3, #1
 19102 0062 FB75     		strb	r3, [r7, #23]
 19103 0064 02E0     		b	.L86
 19104              	.L85:
1168:../StdPeripheralDriver/src/stm32f10x_i2c.c ****   }
1169:../StdPeripheralDriver/src/stm32f10x_i2c.c ****   else
1170:../StdPeripheralDriver/src/stm32f10x_i2c.c ****   {
1171:../StdPeripheralDriver/src/stm32f10x_i2c.c ****     /* I2C_FLAG is reset */
1172:../StdPeripheralDriver/src/stm32f10x_i2c.c ****     bitstatus = RESET;
 19105              		.loc 1 1172 0
 19106 0066 4FF00003 		mov	r3, #0
 19107 006a FB75     		strb	r3, [r7, #23]
 19108              	.L86:
1173:../StdPeripheralDriver/src/stm32f10x_i2c.c ****   }
1174:../StdPeripheralDriver/src/stm32f10x_i2c.c ****   
1175:../StdPeripheralDriver/src/stm32f10x_i2c.c ****   /* Return the I2C_FLAG status */
1176:../StdPeripheralDriver/src/stm32f10x_i2c.c ****   return  bitstatus;
 19109              		.loc 1 1176 0
 19110 006c FB7D     		ldrb	r3, [r7, #23]	@ zero_extendqisi2
1177:../StdPeripheralDriver/src/stm32f10x_i2c.c **** }
 19111              		.loc 1 1177 0
 19112 006e 1846     		mov	r0, r3
 19113 0070 07F11C07 		add	r7, r7, #28
 19114 0074 BD46     		mov	sp, r7
 19115 0076 80BC     		pop	{r7}
 19116 0078 7047     		bx	lr
 19117              		.cfi_endproc
 19118              	.LFE58:
 19120 007a 00BF     		.section	.text.I2C_ClearFlag,"ax",%progbits
 19121              		.align	2
 19122              		.global	I2C_ClearFlag
 19123              		.thumb
 19124              		.thumb_func
 19126              	I2C_ClearFlag:
 19127              	.LFB59:
1178:../StdPeripheralDriver/src/stm32f10x_i2c.c **** 
1179:../StdPeripheralDriver/src/stm32f10x_i2c.c **** 
1180:../StdPeripheralDriver/src/stm32f10x_i2c.c **** 
1181:../StdPeripheralDriver/src/stm32f10x_i2c.c **** /**
1182:../StdPeripheralDriver/src/stm32f10x_i2c.c ****   * @brief  Clears the I2Cx's pending flags.
1183:../StdPeripheralDriver/src/stm32f10x_i2c.c ****   * @param  I2Cx: where x can be 1 or 2 to select the I2C peripheral.
1184:../StdPeripheralDriver/src/stm32f10x_i2c.c ****   * @param  I2C_FLAG: specifies the flag to clear. 
1185:../StdPeripheralDriver/src/stm32f10x_i2c.c ****   *   This parameter can be any combination of the following values:
1186:../StdPeripheralDriver/src/stm32f10x_i2c.c ****   *     @arg I2C_FLAG_SMBALERT: SMBus Alert flag
1187:../StdPeripheralDriver/src/stm32f10x_i2c.c ****   *     @arg I2C_FLAG_TIMEOUT: Timeout or Tlow error flag
1188:../StdPeripheralDriver/src/stm32f10x_i2c.c ****   *     @arg I2C_FLAG_PECERR: PEC error in reception flag
1189:../StdPeripheralDriver/src/stm32f10x_i2c.c ****   *     @arg I2C_FLAG_OVR: Overrun/Underrun flag (Slave mode)
1190:../StdPeripheralDriver/src/stm32f10x_i2c.c ****   *     @arg I2C_FLAG_AF: Acknowledge failure flag
1191:../StdPeripheralDriver/src/stm32f10x_i2c.c ****   *     @arg I2C_FLAG_ARLO: Arbitration lost flag (Master mode)
1192:../StdPeripheralDriver/src/stm32f10x_i2c.c ****   *     @arg I2C_FLAG_BERR: Bus error flag
1193:../StdPeripheralDriver/src/stm32f10x_i2c.c ****   *   
1194:../StdPeripheralDriver/src/stm32f10x_i2c.c ****   * @note
1195:../StdPeripheralDriver/src/stm32f10x_i2c.c ****   *   - STOPF (STOP detection) is cleared by software sequence: a read operation 
1196:../StdPeripheralDriver/src/stm32f10x_i2c.c ****   *     to I2C_SR1 register (I2C_GetFlagStatus()) followed by a write operation 
1197:../StdPeripheralDriver/src/stm32f10x_i2c.c ****   *     to I2C_CR1 register (I2C_Cmd() to re-enable the I2C peripheral).
1198:../StdPeripheralDriver/src/stm32f10x_i2c.c ****   *   - ADD10 (10-bit header sent) is cleared by software sequence: a read 
1199:../StdPeripheralDriver/src/stm32f10x_i2c.c ****   *     operation to I2C_SR1 (I2C_GetFlagStatus()) followed by writing the 
1200:../StdPeripheralDriver/src/stm32f10x_i2c.c ****   *     second byte of the address in DR register.
1201:../StdPeripheralDriver/src/stm32f10x_i2c.c ****   *   - BTF (Byte Transfer Finished) is cleared by software sequence: a read 
1202:../StdPeripheralDriver/src/stm32f10x_i2c.c ****   *     operation to I2C_SR1 register (I2C_GetFlagStatus()) followed by a 
1203:../StdPeripheralDriver/src/stm32f10x_i2c.c ****   *     read/write to I2C_DR register (I2C_SendData()).
1204:../StdPeripheralDriver/src/stm32f10x_i2c.c ****   *   - ADDR (Address sent) is cleared by software sequence: a read operation to 
1205:../StdPeripheralDriver/src/stm32f10x_i2c.c ****   *     I2C_SR1 register (I2C_GetFlagStatus()) followed by a read operation to 
1206:../StdPeripheralDriver/src/stm32f10x_i2c.c ****   *     I2C_SR2 register ((void)(I2Cx->SR2)).
1207:../StdPeripheralDriver/src/stm32f10x_i2c.c ****   *   - SB (Start Bit) is cleared software sequence: a read operation to I2C_SR1
1208:../StdPeripheralDriver/src/stm32f10x_i2c.c ****   *     register (I2C_GetFlagStatus()) followed by a write operation to I2C_DR
1209:../StdPeripheralDriver/src/stm32f10x_i2c.c ****   *     register  (I2C_SendData()).
1210:../StdPeripheralDriver/src/stm32f10x_i2c.c ****   * @retval None
1211:../StdPeripheralDriver/src/stm32f10x_i2c.c ****   */
1212:../StdPeripheralDriver/src/stm32f10x_i2c.c **** void I2C_ClearFlag(I2C_TypeDef* I2Cx, uint32_t I2C_FLAG)
1213:../StdPeripheralDriver/src/stm32f10x_i2c.c **** {
 19128              		.loc 1 1213 0
 19129              		.cfi_startproc
 19130              		@ args = 0, pretend = 0, frame = 16
 19131              		@ frame_needed = 1, uses_anonymous_args = 0
 19132              		@ link register save eliminated.
 19133 0000 80B4     		push	{r7}
 19134              	.LCFI90:
 19135              		.cfi_def_cfa_offset 4
 19136 0002 85B0     		sub	sp, sp, #20
 19137              	.LCFI91:
 19138              		.cfi_def_cfa_offset 24
 19139 0004 00AF     		add	r7, sp, #0
 19140              		.cfi_offset 7, -4
 19141              	.LCFI92:
 19142              		.cfi_def_cfa_register 7
 19143 0006 7860     		str	r0, [r7, #4]
 19144 0008 3960     		str	r1, [r7, #0]
1214:../StdPeripheralDriver/src/stm32f10x_i2c.c ****   uint32_t flagpos = 0;
 19145              		.loc 1 1214 0
 19146 000a 4FF00003 		mov	r3, #0
 19147 000e FB60     		str	r3, [r7, #12]
1215:../StdPeripheralDriver/src/stm32f10x_i2c.c ****   /* Check the parameters */
1216:../StdPeripheralDriver/src/stm32f10x_i2c.c ****   assert_param(IS_I2C_ALL_PERIPH(I2Cx));
1217:../StdPeripheralDriver/src/stm32f10x_i2c.c ****   assert_param(IS_I2C_CLEAR_FLAG(I2C_FLAG));
1218:../StdPeripheralDriver/src/stm32f10x_i2c.c ****   /* Get the I2C flag position */
1219:../StdPeripheralDriver/src/stm32f10x_i2c.c ****   flagpos = I2C_FLAG & FLAG_Mask;
 19148              		.loc 1 1219 0
 19149 0010 3B68     		ldr	r3, [r7, #0]
 19150 0012 23F07F43 		bic	r3, r3, #-16777216
 19151 0016 FB60     		str	r3, [r7, #12]
1220:../StdPeripheralDriver/src/stm32f10x_i2c.c ****   /* Clear the selected I2C flag */
1221:../StdPeripheralDriver/src/stm32f10x_i2c.c ****   I2Cx->SR1 = (uint16_t)~flagpos;
 19152              		.loc 1 1221 0
 19153 0018 FB68     		ldr	r3, [r7, #12]
 19154 001a 9BB2     		uxth	r3, r3
 19155 001c 6FEA0303 		mvn	r3, r3
 19156 0020 9AB2     		uxth	r2, r3
 19157 0022 7B68     		ldr	r3, [r7, #4]
 19158 0024 9A82     		strh	r2, [r3, #20]	@ movhi
1222:../StdPeripheralDriver/src/stm32f10x_i2c.c **** }
 19159              		.loc 1 1222 0
 19160 0026 07F11407 		add	r7, r7, #20
 19161 002a BD46     		mov	sp, r7
 19162 002c 80BC     		pop	{r7}
 19163 002e 7047     		bx	lr
 19164              		.cfi_endproc
 19165              	.LFE59:
 19167              		.section	.text.I2C_GetITStatus,"ax",%progbits
 19168              		.align	2
 19169              		.global	I2C_GetITStatus
 19170              		.thumb
 19171              		.thumb_func
 19173              	I2C_GetITStatus:
 19174              	.LFB60:
1223:../StdPeripheralDriver/src/stm32f10x_i2c.c **** 
1224:../StdPeripheralDriver/src/stm32f10x_i2c.c **** /**
1225:../StdPeripheralDriver/src/stm32f10x_i2c.c ****   * @brief  Checks whether the specified I2C interrupt has occurred or not.
1226:../StdPeripheralDriver/src/stm32f10x_i2c.c ****   * @param  I2Cx: where x can be 1 or 2 to select the I2C peripheral.
1227:../StdPeripheralDriver/src/stm32f10x_i2c.c ****   * @param  I2C_IT: specifies the interrupt source to check. 
1228:../StdPeripheralDriver/src/stm32f10x_i2c.c ****   *   This parameter can be one of the following values:
1229:../StdPeripheralDriver/src/stm32f10x_i2c.c ****   *     @arg I2C_IT_SMBALERT: SMBus Alert flag
1230:../StdPeripheralDriver/src/stm32f10x_i2c.c ****   *     @arg I2C_IT_TIMEOUT: Timeout or Tlow error flag
1231:../StdPeripheralDriver/src/stm32f10x_i2c.c ****   *     @arg I2C_IT_PECERR: PEC error in reception flag
1232:../StdPeripheralDriver/src/stm32f10x_i2c.c ****   *     @arg I2C_IT_OVR: Overrun/Underrun flag (Slave mode)
1233:../StdPeripheralDriver/src/stm32f10x_i2c.c ****   *     @arg I2C_IT_AF: Acknowledge failure flag
1234:../StdPeripheralDriver/src/stm32f10x_i2c.c ****   *     @arg I2C_IT_ARLO: Arbitration lost flag (Master mode)
1235:../StdPeripheralDriver/src/stm32f10x_i2c.c ****   *     @arg I2C_IT_BERR: Bus error flag
1236:../StdPeripheralDriver/src/stm32f10x_i2c.c ****   *     @arg I2C_IT_TXE: Data register empty flag (Transmitter)
1237:../StdPeripheralDriver/src/stm32f10x_i2c.c ****   *     @arg I2C_IT_RXNE: Data register not empty (Receiver) flag
1238:../StdPeripheralDriver/src/stm32f10x_i2c.c ****   *     @arg I2C_IT_STOPF: Stop detection flag (Slave mode)
1239:../StdPeripheralDriver/src/stm32f10x_i2c.c ****   *     @arg I2C_IT_ADD10: 10-bit header sent flag (Master mode)
1240:../StdPeripheralDriver/src/stm32f10x_i2c.c ****   *     @arg I2C_IT_BTF: Byte transfer finished flag
1241:../StdPeripheralDriver/src/stm32f10x_i2c.c ****   *     @arg I2C_IT_ADDR: Address sent flag (Master mode) "ADSL"
1242:../StdPeripheralDriver/src/stm32f10x_i2c.c ****   *                       Address matched flag (Slave mode)"ENDAD"
1243:../StdPeripheralDriver/src/stm32f10x_i2c.c ****   *     @arg I2C_IT_SB: Start bit flag (Master mode)
1244:../StdPeripheralDriver/src/stm32f10x_i2c.c ****   * @retval The new state of I2C_IT (SET or RESET).
1245:../StdPeripheralDriver/src/stm32f10x_i2c.c ****   */
1246:../StdPeripheralDriver/src/stm32f10x_i2c.c **** ITStatus I2C_GetITStatus(I2C_TypeDef* I2Cx, uint32_t I2C_IT)
1247:../StdPeripheralDriver/src/stm32f10x_i2c.c **** {
 19175              		.loc 1 1247 0
 19176              		.cfi_startproc
 19177              		@ args = 0, pretend = 0, frame = 16
 19178              		@ frame_needed = 1, uses_anonymous_args = 0
 19179              		@ link register save eliminated.
 19180 0000 80B4     		push	{r7}
 19181              	.LCFI93:
 19182              		.cfi_def_cfa_offset 4
 19183 0002 85B0     		sub	sp, sp, #20
 19184              	.LCFI94:
 19185              		.cfi_def_cfa_offset 24
 19186 0004 00AF     		add	r7, sp, #0
 19187              		.cfi_offset 7, -4
 19188              	.LCFI95:
 19189              		.cfi_def_cfa_register 7
 19190 0006 7860     		str	r0, [r7, #4]
 19191 0008 3960     		str	r1, [r7, #0]
1248:../StdPeripheralDriver/src/stm32f10x_i2c.c ****   ITStatus bitstatus = RESET;
 19192              		.loc 1 1248 0
 19193 000a 4FF00003 		mov	r3, #0
 19194 000e FB73     		strb	r3, [r7, #15]
1249:../StdPeripheralDriver/src/stm32f10x_i2c.c ****   uint32_t enablestatus = 0;
 19195              		.loc 1 1249 0
 19196 0010 4FF00003 		mov	r3, #0
 19197 0014 BB60     		str	r3, [r7, #8]
1250:../StdPeripheralDriver/src/stm32f10x_i2c.c **** 
1251:../StdPeripheralDriver/src/stm32f10x_i2c.c ****   /* Check the parameters */
1252:../StdPeripheralDriver/src/stm32f10x_i2c.c ****   assert_param(IS_I2C_ALL_PERIPH(I2Cx));
1253:../StdPeripheralDriver/src/stm32f10x_i2c.c ****   assert_param(IS_I2C_GET_IT(I2C_IT));
1254:../StdPeripheralDriver/src/stm32f10x_i2c.c **** 
1255:../StdPeripheralDriver/src/stm32f10x_i2c.c ****   /* Check if the interrupt source is enabled or not */
1256:../StdPeripheralDriver/src/stm32f10x_i2c.c ****   enablestatus = (uint32_t)(((I2C_IT & ITEN_Mask) >> 16) & (I2Cx->CR2)) ;
 19198              		.loc 1 1256 0
 19199 0016 3B68     		ldr	r3, [r7, #0]
 19200 0018 03F0E063 		and	r3, r3, #117440512
 19201 001c 4FEA1342 		lsr	r2, r3, #16
 19202 0020 7B68     		ldr	r3, [r7, #4]
 19203 0022 9B88     		ldrh	r3, [r3, #4]	@ movhi
 19204 0024 9BB2     		uxth	r3, r3
 19205 0026 02EA0303 		and	r3, r2, r3
 19206 002a BB60     		str	r3, [r7, #8]
1257:../StdPeripheralDriver/src/stm32f10x_i2c.c ****   
1258:../StdPeripheralDriver/src/stm32f10x_i2c.c ****   /* Get bit[23:0] of the flag */
1259:../StdPeripheralDriver/src/stm32f10x_i2c.c ****   I2C_IT &= FLAG_Mask;
 19207              		.loc 1 1259 0
 19208 002c 3B68     		ldr	r3, [r7, #0]
 19209 002e 23F07F43 		bic	r3, r3, #-16777216
 19210 0032 3B60     		str	r3, [r7, #0]
1260:../StdPeripheralDriver/src/stm32f10x_i2c.c **** 
1261:../StdPeripheralDriver/src/stm32f10x_i2c.c ****   /* Check the status of the specified I2C flag */
1262:../StdPeripheralDriver/src/stm32f10x_i2c.c ****   if (((I2Cx->SR1 & I2C_IT) != (uint32_t)RESET) && enablestatus)
 19211              		.loc 1 1262 0
 19212 0034 7B68     		ldr	r3, [r7, #4]
 19213 0036 9B8A     		ldrh	r3, [r3, #20]	@ movhi
 19214 0038 9BB2     		uxth	r3, r3
 19215 003a 1A46     		mov	r2, r3
 19216 003c 3B68     		ldr	r3, [r7, #0]
 19217 003e 02EA0303 		and	r3, r2, r3
 19218 0042 002B     		cmp	r3, #0
 19219 0044 06D0     		beq	.L89
 19220              		.loc 1 1262 0 is_stmt 0 discriminator 1
 19221 0046 BB68     		ldr	r3, [r7, #8]
 19222 0048 002B     		cmp	r3, #0
 19223 004a 03D0     		beq	.L89
1263:../StdPeripheralDriver/src/stm32f10x_i2c.c ****   {
1264:../StdPeripheralDriver/src/stm32f10x_i2c.c ****     /* I2C_IT is set */
1265:../StdPeripheralDriver/src/stm32f10x_i2c.c ****     bitstatus = SET;
 19224              		.loc 1 1265 0 is_stmt 1
 19225 004c 4FF00103 		mov	r3, #1
 19226 0050 FB73     		strb	r3, [r7, #15]
 19227 0052 02E0     		b	.L90
 19228              	.L89:
1266:../StdPeripheralDriver/src/stm32f10x_i2c.c ****   }
1267:../StdPeripheralDriver/src/stm32f10x_i2c.c ****   else
1268:../StdPeripheralDriver/src/stm32f10x_i2c.c ****   {
1269:../StdPeripheralDriver/src/stm32f10x_i2c.c ****     /* I2C_IT is reset */
1270:../StdPeripheralDriver/src/stm32f10x_i2c.c ****     bitstatus = RESET;
 19229              		.loc 1 1270 0
 19230 0054 4FF00003 		mov	r3, #0
 19231 0058 FB73     		strb	r3, [r7, #15]
 19232              	.L90:
1271:../StdPeripheralDriver/src/stm32f10x_i2c.c ****   }
1272:../StdPeripheralDriver/src/stm32f10x_i2c.c ****   /* Return the I2C_IT status */
1273:../StdPeripheralDriver/src/stm32f10x_i2c.c ****   return  bitstatus;
 19233              		.loc 1 1273 0
 19234 005a FB7B     		ldrb	r3, [r7, #15]	@ zero_extendqisi2
1274:../StdPeripheralDriver/src/stm32f10x_i2c.c **** }
 19235              		.loc 1 1274 0
 19236 005c 1846     		mov	r0, r3
 19237 005e 07F11407 		add	r7, r7, #20
 19238 0062 BD46     		mov	sp, r7
 19239 0064 80BC     		pop	{r7}
 19240 0066 7047     		bx	lr
 19241              		.cfi_endproc
 19242              	.LFE60:
 19244              		.section	.text.I2C_ClearITPendingBit,"ax",%progbits
 19245              		.align	2
 19246              		.global	I2C_ClearITPendingBit
 19247              		.thumb
 19248              		.thumb_func
 19250              	I2C_ClearITPendingBit:
 19251              	.LFB61:
1275:../StdPeripheralDriver/src/stm32f10x_i2c.c **** 
1276:../StdPeripheralDriver/src/stm32f10x_i2c.c **** /**
1277:../StdPeripheralDriver/src/stm32f10x_i2c.c ****   * @brief  Clears the I2Cxs interrupt pending bits.
1278:../StdPeripheralDriver/src/stm32f10x_i2c.c ****   * @param  I2Cx: where x can be 1 or 2 to select the I2C peripheral.
1279:../StdPeripheralDriver/src/stm32f10x_i2c.c ****   * @param  I2C_IT: specifies the interrupt pending bit to clear. 
1280:../StdPeripheralDriver/src/stm32f10x_i2c.c ****   *   This parameter can be any combination of the following values:
1281:../StdPeripheralDriver/src/stm32f10x_i2c.c ****   *     @arg I2C_IT_SMBALERT: SMBus Alert interrupt
1282:../StdPeripheralDriver/src/stm32f10x_i2c.c ****   *     @arg I2C_IT_TIMEOUT: Timeout or Tlow error interrupt
1283:../StdPeripheralDriver/src/stm32f10x_i2c.c ****   *     @arg I2C_IT_PECERR: PEC error in reception  interrupt
1284:../StdPeripheralDriver/src/stm32f10x_i2c.c ****   *     @arg I2C_IT_OVR: Overrun/Underrun interrupt (Slave mode)
1285:../StdPeripheralDriver/src/stm32f10x_i2c.c ****   *     @arg I2C_IT_AF: Acknowledge failure interrupt
1286:../StdPeripheralDriver/src/stm32f10x_i2c.c ****   *     @arg I2C_IT_ARLO: Arbitration lost interrupt (Master mode)
1287:../StdPeripheralDriver/src/stm32f10x_i2c.c ****   *     @arg I2C_IT_BERR: Bus error interrupt
1288:../StdPeripheralDriver/src/stm32f10x_i2c.c ****   *   
1289:../StdPeripheralDriver/src/stm32f10x_i2c.c ****   * @note
1290:../StdPeripheralDriver/src/stm32f10x_i2c.c ****   *   - STOPF (STOP detection) is cleared by software sequence: a read operation 
1291:../StdPeripheralDriver/src/stm32f10x_i2c.c ****   *     to I2C_SR1 register (I2C_GetITStatus()) followed by a write operation to 
1292:../StdPeripheralDriver/src/stm32f10x_i2c.c ****   *     I2C_CR1 register (I2C_Cmd() to re-enable the I2C peripheral).
1293:../StdPeripheralDriver/src/stm32f10x_i2c.c ****   *   - ADD10 (10-bit header sent) is cleared by software sequence: a read 
1294:../StdPeripheralDriver/src/stm32f10x_i2c.c ****   *     operation to I2C_SR1 (I2C_GetITStatus()) followed by writing the second 
1295:../StdPeripheralDriver/src/stm32f10x_i2c.c ****   *     byte of the address in I2C_DR register.
1296:../StdPeripheralDriver/src/stm32f10x_i2c.c ****   *   - BTF (Byte Transfer Finished) is cleared by software sequence: a read 
1297:../StdPeripheralDriver/src/stm32f10x_i2c.c ****   *     operation to I2C_SR1 register (I2C_GetITStatus()) followed by a 
1298:../StdPeripheralDriver/src/stm32f10x_i2c.c ****   *     read/write to I2C_DR register (I2C_SendData()).
1299:../StdPeripheralDriver/src/stm32f10x_i2c.c ****   *   - ADDR (Address sent) is cleared by software sequence: a read operation to 
1300:../StdPeripheralDriver/src/stm32f10x_i2c.c ****   *     I2C_SR1 register (I2C_GetITStatus()) followed by a read operation to 
1301:../StdPeripheralDriver/src/stm32f10x_i2c.c ****   *     I2C_SR2 register ((void)(I2Cx->SR2)).
1302:../StdPeripheralDriver/src/stm32f10x_i2c.c ****   *   - SB (Start Bit) is cleared by software sequence: a read operation to 
1303:../StdPeripheralDriver/src/stm32f10x_i2c.c ****   *     I2C_SR1 register (I2C_GetITStatus()) followed by a write operation to 
1304:../StdPeripheralDriver/src/stm32f10x_i2c.c ****   *     I2C_DR register (I2C_SendData()).
1305:../StdPeripheralDriver/src/stm32f10x_i2c.c ****   * @retval None
1306:../StdPeripheralDriver/src/stm32f10x_i2c.c ****   */
1307:../StdPeripheralDriver/src/stm32f10x_i2c.c **** void I2C_ClearITPendingBit(I2C_TypeDef* I2Cx, uint32_t I2C_IT)
1308:../StdPeripheralDriver/src/stm32f10x_i2c.c **** {
 19252              		.loc 1 1308 0
 19253              		.cfi_startproc
 19254              		@ args = 0, pretend = 0, frame = 16
 19255              		@ frame_needed = 1, uses_anonymous_args = 0
 19256              		@ link register save eliminated.
 19257 0000 80B4     		push	{r7}
 19258              	.LCFI96:
 19259              		.cfi_def_cfa_offset 4
 19260 0002 85B0     		sub	sp, sp, #20
 19261              	.LCFI97:
 19262              		.cfi_def_cfa_offset 24
 19263 0004 00AF     		add	r7, sp, #0
 19264              		.cfi_offset 7, -4
 19265              	.LCFI98:
 19266              		.cfi_def_cfa_register 7
 19267 0006 7860     		str	r0, [r7, #4]
 19268 0008 3960     		str	r1, [r7, #0]
1309:../StdPeripheralDriver/src/stm32f10x_i2c.c ****   uint32_t flagpos = 0;
 19269              		.loc 1 1309 0
 19270 000a 4FF00003 		mov	r3, #0
 19271 000e FB60     		str	r3, [r7, #12]
1310:../StdPeripheralDriver/src/stm32f10x_i2c.c ****   /* Check the parameters */
1311:../StdPeripheralDriver/src/stm32f10x_i2c.c ****   assert_param(IS_I2C_ALL_PERIPH(I2Cx));
1312:../StdPeripheralDriver/src/stm32f10x_i2c.c ****   assert_param(IS_I2C_CLEAR_IT(I2C_IT));
1313:../StdPeripheralDriver/src/stm32f10x_i2c.c ****   /* Get the I2C flag position */
1314:../StdPeripheralDriver/src/stm32f10x_i2c.c ****   flagpos = I2C_IT & FLAG_Mask;
 19272              		.loc 1 1314 0
 19273 0010 3B68     		ldr	r3, [r7, #0]
 19274 0012 23F07F43 		bic	r3, r3, #-16777216
 19275 0016 FB60     		str	r3, [r7, #12]
1315:../StdPeripheralDriver/src/stm32f10x_i2c.c ****   /* Clear the selected I2C flag */
1316:../StdPeripheralDriver/src/stm32f10x_i2c.c ****   I2Cx->SR1 = (uint16_t)~flagpos;
 19276              		.loc 1 1316 0
 19277 0018 FB68     		ldr	r3, [r7, #12]
 19278 001a 9BB2     		uxth	r3, r3
 19279 001c 6FEA0303 		mvn	r3, r3
 19280 0020 9AB2     		uxth	r2, r3
 19281 0022 7B68     		ldr	r3, [r7, #4]
 19282 0024 9A82     		strh	r2, [r3, #20]	@ movhi
1317:../StdPeripheralDriver/src/stm32f10x_i2c.c **** }
 19283              		.loc 1 1317 0
 19284 0026 07F11407 		add	r7, r7, #20
 19285 002a BD46     		mov	sp, r7
 19286 002c 80BC     		pop	{r7}
 19287 002e 7047     		bx	lr
 19288              		.cfi_endproc
 19289              	.LFE61:
 19291              		.text
 19292              	.Letext0:
DEFINED SYMBOLS
                            *ABS*:00000000 stm32f10x_i2c.c
     /tmp/ccseMDl4.s:17219  .text.I2C_DeInit:00000000 $t
     /tmp/ccseMDl4.s:17224  .text.I2C_DeInit:00000000 I2C_DeInit
     /tmp/ccseMDl4.s:17273  .text.I2C_DeInit:0000004c $d
     /tmp/ccseMDl4.s:17278  .text.I2C_Init:00000000 $t
     /tmp/ccseMDl4.s:17283  .text.I2C_Init:00000000 I2C_Init
     /tmp/ccseMDl4.s:17506  .text.I2C_Init:000001a0 $d
     /tmp/ccseMDl4.s:17514  .text.I2C_StructInit:00000000 $t
     /tmp/ccseMDl4.s:17519  .text.I2C_StructInit:00000000 I2C_StructInit
     /tmp/ccseMDl4.s:17570  .text.I2C_Cmd:00000000 $t
     /tmp/ccseMDl4.s:17575  .text.I2C_Cmd:00000000 I2C_Cmd
     /tmp/ccseMDl4.s:17627  .text.I2C_DMACmd:00000000 $t
     /tmp/ccseMDl4.s:17632  .text.I2C_DMACmd:00000000 I2C_DMACmd
     /tmp/ccseMDl4.s:17684  .text.I2C_DMALastTransferCmd:00000000 $t
     /tmp/ccseMDl4.s:17689  .text.I2C_DMALastTransferCmd:00000000 I2C_DMALastTransferCmd
     /tmp/ccseMDl4.s:17741  .text.I2C_GenerateSTART:00000000 $t
     /tmp/ccseMDl4.s:17746  .text.I2C_GenerateSTART:00000000 I2C_GenerateSTART
     /tmp/ccseMDl4.s:17798  .text.I2C_GenerateSTOP:00000000 $t
     /tmp/ccseMDl4.s:17803  .text.I2C_GenerateSTOP:00000000 I2C_GenerateSTOP
     /tmp/ccseMDl4.s:17855  .text.I2C_AcknowledgeConfig:00000000 $t
     /tmp/ccseMDl4.s:17860  .text.I2C_AcknowledgeConfig:00000000 I2C_AcknowledgeConfig
     /tmp/ccseMDl4.s:17912  .text.I2C_OwnAddress2Config:00000000 $t
     /tmp/ccseMDl4.s:17917  .text.I2C_OwnAddress2Config:00000000 I2C_OwnAddress2Config
     /tmp/ccseMDl4.s:17970  .text.I2C_DualAddressCmd:00000000 $t
     /tmp/ccseMDl4.s:17975  .text.I2C_DualAddressCmd:00000000 I2C_DualAddressCmd
     /tmp/ccseMDl4.s:18027  .text.I2C_GeneralCallCmd:00000000 $t
     /tmp/ccseMDl4.s:18032  .text.I2C_GeneralCallCmd:00000000 I2C_GeneralCallCmd
     /tmp/ccseMDl4.s:18084  .text.I2C_ITConfig:00000000 $t
     /tmp/ccseMDl4.s:18089  .text.I2C_ITConfig:00000000 I2C_ITConfig
     /tmp/ccseMDl4.s:18147  .text.I2C_SendData:00000000 $t
     /tmp/ccseMDl4.s:18152  .text.I2C_SendData:00000000 I2C_SendData
     /tmp/ccseMDl4.s:18186  .text.I2C_ReceiveData:00000000 $t
     /tmp/ccseMDl4.s:18191  .text.I2C_ReceiveData:00000000 I2C_ReceiveData
     /tmp/ccseMDl4.s:18224  .text.I2C_Send7bitAddress:00000000 $t
     /tmp/ccseMDl4.s:18229  .text.I2C_Send7bitAddress:00000000 I2C_Send7bitAddress
     /tmp/ccseMDl4.s:18280  .text.I2C_ReadRegister:00000000 $t
     /tmp/ccseMDl4.s:18285  .text.I2C_ReadRegister:00000000 I2C_ReadRegister
     /tmp/ccseMDl4.s:18330  .text.I2C_SoftwareResetCmd:00000000 $t
     /tmp/ccseMDl4.s:18335  .text.I2C_SoftwareResetCmd:00000000 I2C_SoftwareResetCmd
     /tmp/ccseMDl4.s:18389  .text.I2C_NACKPositionConfig:00000000 $t
     /tmp/ccseMDl4.s:18394  .text.I2C_NACKPositionConfig:00000000 I2C_NACKPositionConfig
     /tmp/ccseMDl4.s:18446  .text.I2C_SMBusAlertConfig:00000000 $t
     /tmp/ccseMDl4.s:18451  .text.I2C_SMBusAlertConfig:00000000 I2C_SMBusAlertConfig
     /tmp/ccseMDl4.s:18503  .text.I2C_TransmitPEC:00000000 $t
     /tmp/ccseMDl4.s:18508  .text.I2C_TransmitPEC:00000000 I2C_TransmitPEC
     /tmp/ccseMDl4.s:18560  .text.I2C_PECPositionConfig:00000000 $t
     /tmp/ccseMDl4.s:18565  .text.I2C_PECPositionConfig:00000000 I2C_PECPositionConfig
     /tmp/ccseMDl4.s:18617  .text.I2C_CalculatePEC:00000000 $t
     /tmp/ccseMDl4.s:18622  .text.I2C_CalculatePEC:00000000 I2C_CalculatePEC
     /tmp/ccseMDl4.s:18674  .text.I2C_GetPEC:00000000 $t
     /tmp/ccseMDl4.s:18679  .text.I2C_GetPEC:00000000 I2C_GetPEC
     /tmp/ccseMDl4.s:18714  .text.I2C_ARPCmd:00000000 $t
     /tmp/ccseMDl4.s:18719  .text.I2C_ARPCmd:00000000 I2C_ARPCmd
     /tmp/ccseMDl4.s:18771  .text.I2C_StretchClockCmd:00000000 $t
     /tmp/ccseMDl4.s:18776  .text.I2C_StretchClockCmd:00000000 I2C_StretchClockCmd
     /tmp/ccseMDl4.s:18828  .text.I2C_FastModeDutyCycleConfig:00000000 $t
     /tmp/ccseMDl4.s:18833  .text.I2C_FastModeDutyCycleConfig:00000000 I2C_FastModeDutyCycleConfig
     /tmp/ccseMDl4.s:18885  .text.I2C_CheckEvent:00000000 $t
     /tmp/ccseMDl4.s:18890  .text.I2C_CheckEvent:00000000 I2C_CheckEvent
     /tmp/ccseMDl4.s:18968  .text.I2C_GetLastEvent:00000000 $t
     /tmp/ccseMDl4.s:18973  .text.I2C_GetLastEvent:00000000 I2C_GetLastEvent
     /tmp/ccseMDl4.s:19031  .text.I2C_GetFlagStatus:00000000 $t
     /tmp/ccseMDl4.s:19036  .text.I2C_GetFlagStatus:00000000 I2C_GetFlagStatus
     /tmp/ccseMDl4.s:19121  .text.I2C_ClearFlag:00000000 $t
     /tmp/ccseMDl4.s:19126  .text.I2C_ClearFlag:00000000 I2C_ClearFlag
     /tmp/ccseMDl4.s:19168  .text.I2C_GetITStatus:00000000 $t
     /tmp/ccseMDl4.s:19173  .text.I2C_GetITStatus:00000000 I2C_GetITStatus
     /tmp/ccseMDl4.s:19245  .text.I2C_ClearITPendingBit:00000000 $t
     /tmp/ccseMDl4.s:19250  .text.I2C_ClearITPendingBit:00000000 I2C_ClearITPendingBit
                     .debug_frame:00000010 $d

UNDEFINED SYMBOLS
RCC_APB1PeriphResetCmd
RCC_GetClocksFreq
