   1              		.syntax unified
   2              		.cpu cortex-m3
   3              		.fpu softvfp
   4              		.eabi_attribute 20, 1
   5              		.eabi_attribute 21, 1
   6              		.eabi_attribute 23, 3
   7              		.eabi_attribute 24, 1
   8              		.eabi_attribute 25, 1
   9              		.eabi_attribute 26, 1
  10              		.eabi_attribute 30, 6
  11              		.eabi_attribute 18, 4
  12              		.thumb
  13              		.file	"stm32f10x_crc.c"
  23              	.Ltext0:
  24              		.file 1 "../StdPeripheralDriver/src/stm32f10x_crc.c"
 17476              		.align	2
 17477              		.global	CRC_ResetDR
 17478              		.thumb
 17479              		.thumb_func
 17481              	CRC_ResetDR:
 17482              	.LFB29:
   1:../StdPeripheralDriver/src/stm32f10x_crc.c **** /**
   2:../StdPeripheralDriver/src/stm32f10x_crc.c ****   ******************************************************************************
   3:../StdPeripheralDriver/src/stm32f10x_crc.c ****   * @file    stm32f10x_crc.c
   4:../StdPeripheralDriver/src/stm32f10x_crc.c ****   * @author  MCD Application Team
   5:../StdPeripheralDriver/src/stm32f10x_crc.c ****   * @version V3.5.0
   6:../StdPeripheralDriver/src/stm32f10x_crc.c ****   * @date    11-March-2011
   7:../StdPeripheralDriver/src/stm32f10x_crc.c ****   * @brief   This file provides all the CRC firmware functions.
   8:../StdPeripheralDriver/src/stm32f10x_crc.c ****   ******************************************************************************
   9:../StdPeripheralDriver/src/stm32f10x_crc.c ****   * @attention
  10:../StdPeripheralDriver/src/stm32f10x_crc.c ****   *
  11:../StdPeripheralDriver/src/stm32f10x_crc.c ****   * THE PRESENT FIRMWARE WHICH IS FOR GUIDANCE ONLY AIMS AT PROVIDING CUSTOMERS
  12:../StdPeripheralDriver/src/stm32f10x_crc.c ****   * WITH CODING INFORMATION REGARDING THEIR PRODUCTS IN ORDER FOR THEM TO SAVE
  13:../StdPeripheralDriver/src/stm32f10x_crc.c ****   * TIME. AS A RESULT, STMICROELECTRONICS SHALL NOT BE HELD LIABLE FOR ANY
  14:../StdPeripheralDriver/src/stm32f10x_crc.c ****   * DIRECT, INDIRECT OR CONSEQUENTIAL DAMAGES WITH RESPECT TO ANY CLAIMS ARISING
  15:../StdPeripheralDriver/src/stm32f10x_crc.c ****   * FROM THE CONTENT OF SUCH FIRMWARE AND/OR THE USE MADE BY CUSTOMERS OF THE
  16:../StdPeripheralDriver/src/stm32f10x_crc.c ****   * CODING INFORMATION CONTAINED HEREIN IN CONNECTION WITH THEIR PRODUCTS.
  17:../StdPeripheralDriver/src/stm32f10x_crc.c ****   *
  18:../StdPeripheralDriver/src/stm32f10x_crc.c ****   * <h2><center>&copy; COPYRIGHT 2011 STMicroelectronics</center></h2>
  19:../StdPeripheralDriver/src/stm32f10x_crc.c ****   ******************************************************************************
  20:../StdPeripheralDriver/src/stm32f10x_crc.c ****   */
  21:../StdPeripheralDriver/src/stm32f10x_crc.c **** 
  22:../StdPeripheralDriver/src/stm32f10x_crc.c **** /* Includes ------------------------------------------------------------------*/
  23:../StdPeripheralDriver/src/stm32f10x_crc.c **** #include "stm32f10x_crc.h"
  24:../StdPeripheralDriver/src/stm32f10x_crc.c **** 
  25:../StdPeripheralDriver/src/stm32f10x_crc.c **** /** @addtogroup STM32F10x_StdPeriph_Driver
  26:../StdPeripheralDriver/src/stm32f10x_crc.c ****   * @{
  27:../StdPeripheralDriver/src/stm32f10x_crc.c ****   */
  28:../StdPeripheralDriver/src/stm32f10x_crc.c **** 
  29:../StdPeripheralDriver/src/stm32f10x_crc.c **** /** @defgroup CRC 
  30:../StdPeripheralDriver/src/stm32f10x_crc.c ****   * @brief CRC driver modules
  31:../StdPeripheralDriver/src/stm32f10x_crc.c ****   * @{
  32:../StdPeripheralDriver/src/stm32f10x_crc.c ****   */
  33:../StdPeripheralDriver/src/stm32f10x_crc.c **** 
  34:../StdPeripheralDriver/src/stm32f10x_crc.c **** /** @defgroup CRC_Private_TypesDefinitions
  35:../StdPeripheralDriver/src/stm32f10x_crc.c ****   * @{
  36:../StdPeripheralDriver/src/stm32f10x_crc.c ****   */
  37:../StdPeripheralDriver/src/stm32f10x_crc.c **** 
  38:../StdPeripheralDriver/src/stm32f10x_crc.c **** /**
  39:../StdPeripheralDriver/src/stm32f10x_crc.c ****   * @}
  40:../StdPeripheralDriver/src/stm32f10x_crc.c ****   */
  41:../StdPeripheralDriver/src/stm32f10x_crc.c **** 
  42:../StdPeripheralDriver/src/stm32f10x_crc.c **** /** @defgroup CRC_Private_Defines
  43:../StdPeripheralDriver/src/stm32f10x_crc.c ****   * @{
  44:../StdPeripheralDriver/src/stm32f10x_crc.c ****   */
  45:../StdPeripheralDriver/src/stm32f10x_crc.c **** 
  46:../StdPeripheralDriver/src/stm32f10x_crc.c **** /**
  47:../StdPeripheralDriver/src/stm32f10x_crc.c ****   * @}
  48:../StdPeripheralDriver/src/stm32f10x_crc.c ****   */
  49:../StdPeripheralDriver/src/stm32f10x_crc.c **** 
  50:../StdPeripheralDriver/src/stm32f10x_crc.c **** /** @defgroup CRC_Private_Macros
  51:../StdPeripheralDriver/src/stm32f10x_crc.c ****   * @{
  52:../StdPeripheralDriver/src/stm32f10x_crc.c ****   */
  53:../StdPeripheralDriver/src/stm32f10x_crc.c **** 
  54:../StdPeripheralDriver/src/stm32f10x_crc.c **** /**
  55:../StdPeripheralDriver/src/stm32f10x_crc.c ****   * @}
  56:../StdPeripheralDriver/src/stm32f10x_crc.c ****   */
  57:../StdPeripheralDriver/src/stm32f10x_crc.c **** 
  58:../StdPeripheralDriver/src/stm32f10x_crc.c **** /** @defgroup CRC_Private_Variables
  59:../StdPeripheralDriver/src/stm32f10x_crc.c ****   * @{
  60:../StdPeripheralDriver/src/stm32f10x_crc.c ****   */
  61:../StdPeripheralDriver/src/stm32f10x_crc.c **** 
  62:../StdPeripheralDriver/src/stm32f10x_crc.c **** /**
  63:../StdPeripheralDriver/src/stm32f10x_crc.c ****   * @}
  64:../StdPeripheralDriver/src/stm32f10x_crc.c ****   */
  65:../StdPeripheralDriver/src/stm32f10x_crc.c **** 
  66:../StdPeripheralDriver/src/stm32f10x_crc.c **** /** @defgroup CRC_Private_FunctionPrototypes
  67:../StdPeripheralDriver/src/stm32f10x_crc.c ****   * @{
  68:../StdPeripheralDriver/src/stm32f10x_crc.c ****   */
  69:../StdPeripheralDriver/src/stm32f10x_crc.c **** 
  70:../StdPeripheralDriver/src/stm32f10x_crc.c **** /**
  71:../StdPeripheralDriver/src/stm32f10x_crc.c ****   * @}
  72:../StdPeripheralDriver/src/stm32f10x_crc.c ****   */
  73:../StdPeripheralDriver/src/stm32f10x_crc.c **** 
  74:../StdPeripheralDriver/src/stm32f10x_crc.c **** /** @defgroup CRC_Private_Functions
  75:../StdPeripheralDriver/src/stm32f10x_crc.c ****   * @{
  76:../StdPeripheralDriver/src/stm32f10x_crc.c ****   */
  77:../StdPeripheralDriver/src/stm32f10x_crc.c **** 
  78:../StdPeripheralDriver/src/stm32f10x_crc.c **** /**
  79:../StdPeripheralDriver/src/stm32f10x_crc.c ****   * @brief  Resets the CRC Data register (DR).
  80:../StdPeripheralDriver/src/stm32f10x_crc.c ****   * @param  None
  81:../StdPeripheralDriver/src/stm32f10x_crc.c ****   * @retval None
  82:../StdPeripheralDriver/src/stm32f10x_crc.c ****   */
  83:../StdPeripheralDriver/src/stm32f10x_crc.c **** void CRC_ResetDR(void)
  84:../StdPeripheralDriver/src/stm32f10x_crc.c **** {
 17483              		.loc 1 84 0
 17484              		.cfi_startproc
 17485              		@ args = 0, pretend = 0, frame = 0
 17486              		@ frame_needed = 1, uses_anonymous_args = 0
 17487              		@ link register save eliminated.
 17488 0000 80B4     		push	{r7}
 17489              	.LCFI0:
 17490              		.cfi_def_cfa_offset 4
 17491 0002 00AF     		add	r7, sp, #0
 17492              		.cfi_offset 7, -4
 17493              	.LCFI1:
 17494              		.cfi_def_cfa_register 7
  85:../StdPeripheralDriver/src/stm32f10x_crc.c ****   /* Reset CRC generator */
  86:../StdPeripheralDriver/src/stm32f10x_crc.c ****   CRC->CR = CRC_CR_RESET;
 17495              		.loc 1 86 0
 17496 0004 034B     		ldr	r3, .L2
 17497 0006 4FF00102 		mov	r2, #1
 17498 000a 9A60     		str	r2, [r3, #8]
  87:../StdPeripheralDriver/src/stm32f10x_crc.c **** }
 17499              		.loc 1 87 0
 17500 000c BD46     		mov	sp, r7
 17501 000e 80BC     		pop	{r7}
 17502 0010 7047     		bx	lr
 17503              	.L3:
 17504 0012 00BF     		.align	2
 17505              	.L2:
 17506 0014 00300240 		.word	1073885184
 17507              		.cfi_endproc
 17508              	.LFE29:
 17510              		.section	.text.CRC_CalcCRC,"ax",%progbits
 17511              		.align	2
 17512              		.global	CRC_CalcCRC
 17513              		.thumb
 17514              		.thumb_func
 17516              	CRC_CalcCRC:
 17517              	.LFB30:
  88:../StdPeripheralDriver/src/stm32f10x_crc.c **** 
  89:../StdPeripheralDriver/src/stm32f10x_crc.c **** /**
  90:../StdPeripheralDriver/src/stm32f10x_crc.c ****   * @brief  Computes the 32-bit CRC of a given data word(32-bit).
  91:../StdPeripheralDriver/src/stm32f10x_crc.c ****   * @param  Data: data word(32-bit) to compute its CRC
  92:../StdPeripheralDriver/src/stm32f10x_crc.c ****   * @retval 32-bit CRC
  93:../StdPeripheralDriver/src/stm32f10x_crc.c ****   */
  94:../StdPeripheralDriver/src/stm32f10x_crc.c **** uint32_t CRC_CalcCRC(uint32_t Data)
  95:../StdPeripheralDriver/src/stm32f10x_crc.c **** {
 17518              		.loc 1 95 0
 17519              		.cfi_startproc
 17520              		@ args = 0, pretend = 0, frame = 8
 17521              		@ frame_needed = 1, uses_anonymous_args = 0
 17522              		@ link register save eliminated.
 17523 0000 80B4     		push	{r7}
 17524              	.LCFI2:
 17525              		.cfi_def_cfa_offset 4
 17526 0002 83B0     		sub	sp, sp, #12
 17527              	.LCFI3:
 17528              		.cfi_def_cfa_offset 16
 17529 0004 00AF     		add	r7, sp, #0
 17530              		.cfi_offset 7, -4
 17531              	.LCFI4:
 17532              		.cfi_def_cfa_register 7
 17533 0006 7860     		str	r0, [r7, #4]
  96:../StdPeripheralDriver/src/stm32f10x_crc.c ****   CRC->DR = Data;
 17534              		.loc 1 96 0
 17535 0008 054B     		ldr	r3, .L5
 17536 000a 7A68     		ldr	r2, [r7, #4]
 17537 000c 1A60     		str	r2, [r3, #0]
  97:../StdPeripheralDriver/src/stm32f10x_crc.c ****   
  98:../StdPeripheralDriver/src/stm32f10x_crc.c ****   return (CRC->DR);
 17538              		.loc 1 98 0
 17539 000e 044B     		ldr	r3, .L5
 17540 0010 1B68     		ldr	r3, [r3, #0]
  99:../StdPeripheralDriver/src/stm32f10x_crc.c **** }
 17541              		.loc 1 99 0
 17542 0012 1846     		mov	r0, r3
 17543 0014 07F10C07 		add	r7, r7, #12
 17544 0018 BD46     		mov	sp, r7
 17545 001a 80BC     		pop	{r7}
 17546 001c 7047     		bx	lr
 17547              	.L6:
 17548 001e 00BF     		.align	2
 17549              	.L5:
 17550 0020 00300240 		.word	1073885184
 17551              		.cfi_endproc
 17552              	.LFE30:
 17554              		.section	.text.CRC_CalcBlockCRC,"ax",%progbits
 17555              		.align	2
 17556              		.global	CRC_CalcBlockCRC
 17557              		.thumb
 17558              		.thumb_func
 17560              	CRC_CalcBlockCRC:
 17561              	.LFB31:
 100:../StdPeripheralDriver/src/stm32f10x_crc.c **** 
 101:../StdPeripheralDriver/src/stm32f10x_crc.c **** /**
 102:../StdPeripheralDriver/src/stm32f10x_crc.c ****   * @brief  Computes the 32-bit CRC of a given buffer of data word(32-bit).
 103:../StdPeripheralDriver/src/stm32f10x_crc.c ****   * @param  pBuffer: pointer to the buffer containing the data to be computed
 104:../StdPeripheralDriver/src/stm32f10x_crc.c ****   * @param  BufferLength: length of the buffer to be computed					
 105:../StdPeripheralDriver/src/stm32f10x_crc.c ****   * @retval 32-bit CRC
 106:../StdPeripheralDriver/src/stm32f10x_crc.c ****   */
 107:../StdPeripheralDriver/src/stm32f10x_crc.c **** uint32_t CRC_CalcBlockCRC(uint32_t pBuffer[], uint32_t BufferLength)
 108:../StdPeripheralDriver/src/stm32f10x_crc.c **** {
 17562              		.loc 1 108 0
 17563              		.cfi_startproc
 17564              		@ args = 0, pretend = 0, frame = 16
 17565              		@ frame_needed = 1, uses_anonymous_args = 0
 17566              		@ link register save eliminated.
 17567 0000 80B4     		push	{r7}
 17568              	.LCFI5:
 17569              		.cfi_def_cfa_offset 4
 17570 0002 85B0     		sub	sp, sp, #20
 17571              	.LCFI6:
 17572              		.cfi_def_cfa_offset 24
 17573 0004 00AF     		add	r7, sp, #0
 17574              		.cfi_offset 7, -4
 17575              	.LCFI7:
 17576              		.cfi_def_cfa_register 7
 17577 0006 7860     		str	r0, [r7, #4]
 17578 0008 3960     		str	r1, [r7, #0]
 109:../StdPeripheralDriver/src/stm32f10x_crc.c ****   uint32_t index = 0;
 17579              		.loc 1 109 0
 17580 000a 4FF00003 		mov	r3, #0
 17581 000e FB60     		str	r3, [r7, #12]
 110:../StdPeripheralDriver/src/stm32f10x_crc.c ****   
 111:../StdPeripheralDriver/src/stm32f10x_crc.c ****   for(index = 0; index < BufferLength; index++)
 17582              		.loc 1 111 0
 17583 0010 4FF00003 		mov	r3, #0
 17584 0014 FB60     		str	r3, [r7, #12]
 17585 0016 0BE0     		b	.L8
 17586              	.L9:
 112:../StdPeripheralDriver/src/stm32f10x_crc.c ****   {
 113:../StdPeripheralDriver/src/stm32f10x_crc.c ****     CRC->DR = pBuffer[index];
 17587              		.loc 1 113 0 discriminator 2
 17588 0018 0B4B     		ldr	r3, .L10
 17589 001a FA68     		ldr	r2, [r7, #12]
 17590 001c 4FEA8202 		lsl	r2, r2, #2
 17591 0020 7968     		ldr	r1, [r7, #4]
 17592 0022 8A18     		adds	r2, r1, r2
 17593 0024 1268     		ldr	r2, [r2, #0]
 17594 0026 1A60     		str	r2, [r3, #0]
 111:../StdPeripheralDriver/src/stm32f10x_crc.c ****   for(index = 0; index < BufferLength; index++)
 17595              		.loc 1 111 0 discriminator 2
 17596 0028 FB68     		ldr	r3, [r7, #12]
 17597 002a 03F10103 		add	r3, r3, #1
 17598 002e FB60     		str	r3, [r7, #12]
 17599              	.L8:
 111:../StdPeripheralDriver/src/stm32f10x_crc.c ****   for(index = 0; index < BufferLength; index++)
 17600              		.loc 1 111 0 is_stmt 0 discriminator 1
 17601 0030 FA68     		ldr	r2, [r7, #12]
 17602 0032 3B68     		ldr	r3, [r7, #0]
 17603 0034 9A42     		cmp	r2, r3
 17604 0036 EFD3     		bcc	.L9
 114:../StdPeripheralDriver/src/stm32f10x_crc.c ****   }
 115:../StdPeripheralDriver/src/stm32f10x_crc.c ****   return (CRC->DR);
 17605              		.loc 1 115 0 is_stmt 1
 17606 0038 034B     		ldr	r3, .L10
 17607 003a 1B68     		ldr	r3, [r3, #0]
 116:../StdPeripheralDriver/src/stm32f10x_crc.c **** }
 17608              		.loc 1 116 0
 17609 003c 1846     		mov	r0, r3
 17610 003e 07F11407 		add	r7, r7, #20
 17611 0042 BD46     		mov	sp, r7
 17612 0044 80BC     		pop	{r7}
 17613 0046 7047     		bx	lr
 17614              	.L11:
 17615              		.align	2
 17616              	.L10:
 17617 0048 00300240 		.word	1073885184
 17618              		.cfi_endproc
 17619              	.LFE31:
 17621              		.section	.text.CRC_GetCRC,"ax",%progbits
 17622              		.align	2
 17623              		.global	CRC_GetCRC
 17624              		.thumb
 17625              		.thumb_func
 17627              	CRC_GetCRC:
 17628              	.LFB32:
 117:../StdPeripheralDriver/src/stm32f10x_crc.c **** 
 118:../StdPeripheralDriver/src/stm32f10x_crc.c **** /**
 119:../StdPeripheralDriver/src/stm32f10x_crc.c ****   * @brief  Returns the current CRC value.
 120:../StdPeripheralDriver/src/stm32f10x_crc.c ****   * @param  None
 121:../StdPeripheralDriver/src/stm32f10x_crc.c ****   * @retval 32-bit CRC
 122:../StdPeripheralDriver/src/stm32f10x_crc.c ****   */
 123:../StdPeripheralDriver/src/stm32f10x_crc.c **** uint32_t CRC_GetCRC(void)
 124:../StdPeripheralDriver/src/stm32f10x_crc.c **** {
 17629              		.loc 1 124 0
 17630              		.cfi_startproc
 17631              		@ args = 0, pretend = 0, frame = 0
 17632              		@ frame_needed = 1, uses_anonymous_args = 0
 17633              		@ link register save eliminated.
 17634 0000 80B4     		push	{r7}
 17635              	.LCFI8:
 17636              		.cfi_def_cfa_offset 4
 17637 0002 00AF     		add	r7, sp, #0
 17638              		.cfi_offset 7, -4
 17639              	.LCFI9:
 17640              		.cfi_def_cfa_register 7
 125:../StdPeripheralDriver/src/stm32f10x_crc.c ****   return (CRC->DR);
 17641              		.loc 1 125 0
 17642 0004 024B     		ldr	r3, .L13
 17643 0006 1B68     		ldr	r3, [r3, #0]
 126:../StdPeripheralDriver/src/stm32f10x_crc.c **** }
 17644              		.loc 1 126 0
 17645 0008 1846     		mov	r0, r3
 17646 000a BD46     		mov	sp, r7
 17647 000c 80BC     		pop	{r7}
 17648 000e 7047     		bx	lr
 17649              	.L14:
 17650              		.align	2
 17651              	.L13:
 17652 0010 00300240 		.word	1073885184
 17653              		.cfi_endproc
 17654              	.LFE32:
 17656              		.section	.text.CRC_SetIDRegister,"ax",%progbits
 17657              		.align	2
 17658              		.global	CRC_SetIDRegister
 17659              		.thumb
 17660              		.thumb_func
 17662              	CRC_SetIDRegister:
 17663              	.LFB33:
 127:../StdPeripheralDriver/src/stm32f10x_crc.c **** 
 128:../StdPeripheralDriver/src/stm32f10x_crc.c **** /**
 129:../StdPeripheralDriver/src/stm32f10x_crc.c ****   * @brief  Stores a 8-bit data in the Independent Data(ID) register.
 130:../StdPeripheralDriver/src/stm32f10x_crc.c ****   * @param  IDValue: 8-bit value to be stored in the ID register 					
 131:../StdPeripheralDriver/src/stm32f10x_crc.c ****   * @retval None
 132:../StdPeripheralDriver/src/stm32f10x_crc.c ****   */
 133:../StdPeripheralDriver/src/stm32f10x_crc.c **** void CRC_SetIDRegister(uint8_t IDValue)
 134:../StdPeripheralDriver/src/stm32f10x_crc.c **** {
 17664              		.loc 1 134 0
 17665              		.cfi_startproc
 17666              		@ args = 0, pretend = 0, frame = 8
 17667              		@ frame_needed = 1, uses_anonymous_args = 0
 17668              		@ link register save eliminated.
 17669 0000 80B4     		push	{r7}
 17670              	.LCFI10:
 17671              		.cfi_def_cfa_offset 4
 17672 0002 83B0     		sub	sp, sp, #12
 17673              	.LCFI11:
 17674              		.cfi_def_cfa_offset 16
 17675 0004 00AF     		add	r7, sp, #0
 17676              		.cfi_offset 7, -4
 17677              	.LCFI12:
 17678              		.cfi_def_cfa_register 7
 17679 0006 0346     		mov	r3, r0
 17680 0008 FB71     		strb	r3, [r7, #7]
 135:../StdPeripheralDriver/src/stm32f10x_crc.c ****   CRC->IDR = IDValue;
 17681              		.loc 1 135 0
 17682 000a 044B     		ldr	r3, .L16
 17683 000c FA79     		ldrb	r2, [r7, #7]
 17684 000e 1A71     		strb	r2, [r3, #4]
 136:../StdPeripheralDriver/src/stm32f10x_crc.c **** }
 17685              		.loc 1 136 0
 17686 0010 07F10C07 		add	r7, r7, #12
 17687 0014 BD46     		mov	sp, r7
 17688 0016 80BC     		pop	{r7}
 17689 0018 7047     		bx	lr
 17690              	.L17:
 17691 001a 00BF     		.align	2
 17692              	.L16:
 17693 001c 00300240 		.word	1073885184
 17694              		.cfi_endproc
 17695              	.LFE33:
 17697              		.section	.text.CRC_GetIDRegister,"ax",%progbits
 17698              		.align	2
 17699              		.global	CRC_GetIDRegister
 17700              		.thumb
 17701              		.thumb_func
 17703              	CRC_GetIDRegister:
 17704              	.LFB34:
 137:../StdPeripheralDriver/src/stm32f10x_crc.c **** 
 138:../StdPeripheralDriver/src/stm32f10x_crc.c **** /**
 139:../StdPeripheralDriver/src/stm32f10x_crc.c ****   * @brief  Returns the 8-bit data stored in the Independent Data(ID) register
 140:../StdPeripheralDriver/src/stm32f10x_crc.c ****   * @param  None
 141:../StdPeripheralDriver/src/stm32f10x_crc.c ****   * @retval 8-bit value of the ID register 
 142:../StdPeripheralDriver/src/stm32f10x_crc.c ****   */
 143:../StdPeripheralDriver/src/stm32f10x_crc.c **** uint8_t CRC_GetIDRegister(void)
 144:../StdPeripheralDriver/src/stm32f10x_crc.c **** {
 17705              		.loc 1 144 0
 17706              		.cfi_startproc
 17707              		@ args = 0, pretend = 0, frame = 0
 17708              		@ frame_needed = 1, uses_anonymous_args = 0
 17709              		@ link register save eliminated.
 17710 0000 80B4     		push	{r7}
 17711              	.LCFI13:
 17712              		.cfi_def_cfa_offset 4
 17713 0002 00AF     		add	r7, sp, #0
 17714              		.cfi_offset 7, -4
 17715              	.LCFI14:
 17716              		.cfi_def_cfa_register 7
 145:../StdPeripheralDriver/src/stm32f10x_crc.c ****   return (CRC->IDR);
 17717              		.loc 1 145 0
 17718 0004 034B     		ldr	r3, .L19
 17719 0006 1B79     		ldrb	r3, [r3, #4]
 17720 0008 DBB2     		uxtb	r3, r3
 146:../StdPeripheralDriver/src/stm32f10x_crc.c **** }
 17721              		.loc 1 146 0
 17722 000a 1846     		mov	r0, r3
 17723 000c BD46     		mov	sp, r7
 17724 000e 80BC     		pop	{r7}
 17725 0010 7047     		bx	lr
 17726              	.L20:
 17727 0012 00BF     		.align	2
 17728              	.L19:
 17729 0014 00300240 		.word	1073885184
 17730              		.cfi_endproc
 17731              	.LFE34:
 17733              		.text
 17734              	.Letext0: