   1              		.syntax unified
   2              		.cpu cortex-m3
   3              		.fpu softvfp
   4              		.eabi_attribute 20, 1
   5              		.eabi_attribute 21, 1
   6              		.eabi_attribute 23, 3
   7              		.eabi_attribute 24, 1
   8              		.eabi_attribute 25, 1
   9              		.eabi_attribute 26, 1
  10              		.eabi_attribute 30, 6
  11              		.eabi_attribute 18, 4
  12              		.thumb
  13              		.file	"stm32f10x_exti.c"
  23              	.Ltext0:
  24              		.file 1 "../StdPeripheralDriver/src/stm32f10x_exti.c"
 17565              		.align	2
 17566              		.global	EXTI_DeInit
 17567              		.thumb
 17568              		.thumb_func
 17570              	EXTI_DeInit:
 17571              	.LFB29:
   1:../StdPeripheralDriver/src/stm32f10x_exti.c **** /**
   2:../StdPeripheralDriver/src/stm32f10x_exti.c ****   ******************************************************************************
   3:../StdPeripheralDriver/src/stm32f10x_exti.c ****   * @file    stm32f10x_exti.c
   4:../StdPeripheralDriver/src/stm32f10x_exti.c ****   * @author  MCD Application Team
   5:../StdPeripheralDriver/src/stm32f10x_exti.c ****   * @version V3.5.0
   6:../StdPeripheralDriver/src/stm32f10x_exti.c ****   * @date    11-March-2011
   7:../StdPeripheralDriver/src/stm32f10x_exti.c ****   * @brief   This file provides all the EXTI firmware functions.
   8:../StdPeripheralDriver/src/stm32f10x_exti.c ****   ******************************************************************************
   9:../StdPeripheralDriver/src/stm32f10x_exti.c ****   * @attention
  10:../StdPeripheralDriver/src/stm32f10x_exti.c ****   *
  11:../StdPeripheralDriver/src/stm32f10x_exti.c ****   * THE PRESENT FIRMWARE WHICH IS FOR GUIDANCE ONLY AIMS AT PROVIDING CUSTOMERS
  12:../StdPeripheralDriver/src/stm32f10x_exti.c ****   * WITH CODING INFORMATION REGARDING THEIR PRODUCTS IN ORDER FOR THEM TO SAVE
  13:../StdPeripheralDriver/src/stm32f10x_exti.c ****   * TIME. AS A RESULT, STMICROELECTRONICS SHALL NOT BE HELD LIABLE FOR ANY
  14:../StdPeripheralDriver/src/stm32f10x_exti.c ****   * DIRECT, INDIRECT OR CONSEQUENTIAL DAMAGES WITH RESPECT TO ANY CLAIMS ARISING
  15:../StdPeripheralDriver/src/stm32f10x_exti.c ****   * FROM THE CONTENT OF SUCH FIRMWARE AND/OR THE USE MADE BY CUSTOMERS OF THE
  16:../StdPeripheralDriver/src/stm32f10x_exti.c ****   * CODING INFORMATION CONTAINED HEREIN IN CONNECTION WITH THEIR PRODUCTS.
  17:../StdPeripheralDriver/src/stm32f10x_exti.c ****   *
  18:../StdPeripheralDriver/src/stm32f10x_exti.c ****   * <h2><center>&copy; COPYRIGHT 2011 STMicroelectronics</center></h2>
  19:../StdPeripheralDriver/src/stm32f10x_exti.c ****   ******************************************************************************
  20:../StdPeripheralDriver/src/stm32f10x_exti.c ****   */
  21:../StdPeripheralDriver/src/stm32f10x_exti.c **** 
  22:../StdPeripheralDriver/src/stm32f10x_exti.c **** /* Includes ------------------------------------------------------------------*/
  23:../StdPeripheralDriver/src/stm32f10x_exti.c **** #include "stm32f10x_exti.h"
  24:../StdPeripheralDriver/src/stm32f10x_exti.c **** 
  25:../StdPeripheralDriver/src/stm32f10x_exti.c **** /** @addtogroup STM32F10x_StdPeriph_Driver
  26:../StdPeripheralDriver/src/stm32f10x_exti.c ****   * @{
  27:../StdPeripheralDriver/src/stm32f10x_exti.c ****   */
  28:../StdPeripheralDriver/src/stm32f10x_exti.c **** 
  29:../StdPeripheralDriver/src/stm32f10x_exti.c **** /** @defgroup EXTI 
  30:../StdPeripheralDriver/src/stm32f10x_exti.c ****   * @brief EXTI driver modules
  31:../StdPeripheralDriver/src/stm32f10x_exti.c ****   * @{
  32:../StdPeripheralDriver/src/stm32f10x_exti.c ****   */
  33:../StdPeripheralDriver/src/stm32f10x_exti.c **** 
  34:../StdPeripheralDriver/src/stm32f10x_exti.c **** /** @defgroup EXTI_Private_TypesDefinitions
  35:../StdPeripheralDriver/src/stm32f10x_exti.c ****   * @{
  36:../StdPeripheralDriver/src/stm32f10x_exti.c ****   */
  37:../StdPeripheralDriver/src/stm32f10x_exti.c **** 
  38:../StdPeripheralDriver/src/stm32f10x_exti.c **** /**
  39:../StdPeripheralDriver/src/stm32f10x_exti.c ****   * @}
  40:../StdPeripheralDriver/src/stm32f10x_exti.c ****   */
  41:../StdPeripheralDriver/src/stm32f10x_exti.c **** 
  42:../StdPeripheralDriver/src/stm32f10x_exti.c **** /** @defgroup EXTI_Private_Defines
  43:../StdPeripheralDriver/src/stm32f10x_exti.c ****   * @{
  44:../StdPeripheralDriver/src/stm32f10x_exti.c ****   */
  45:../StdPeripheralDriver/src/stm32f10x_exti.c **** 
  46:../StdPeripheralDriver/src/stm32f10x_exti.c **** #define EXTI_LINENONE    ((uint32_t)0x00000)  /* No interrupt selected */
  47:../StdPeripheralDriver/src/stm32f10x_exti.c **** 
  48:../StdPeripheralDriver/src/stm32f10x_exti.c **** /**
  49:../StdPeripheralDriver/src/stm32f10x_exti.c ****   * @}
  50:../StdPeripheralDriver/src/stm32f10x_exti.c ****   */
  51:../StdPeripheralDriver/src/stm32f10x_exti.c **** 
  52:../StdPeripheralDriver/src/stm32f10x_exti.c **** /** @defgroup EXTI_Private_Macros
  53:../StdPeripheralDriver/src/stm32f10x_exti.c ****   * @{
  54:../StdPeripheralDriver/src/stm32f10x_exti.c ****   */
  55:../StdPeripheralDriver/src/stm32f10x_exti.c **** 
  56:../StdPeripheralDriver/src/stm32f10x_exti.c **** /**
  57:../StdPeripheralDriver/src/stm32f10x_exti.c ****   * @}
  58:../StdPeripheralDriver/src/stm32f10x_exti.c ****   */
  59:../StdPeripheralDriver/src/stm32f10x_exti.c **** 
  60:../StdPeripheralDriver/src/stm32f10x_exti.c **** /** @defgroup EXTI_Private_Variables
  61:../StdPeripheralDriver/src/stm32f10x_exti.c ****   * @{
  62:../StdPeripheralDriver/src/stm32f10x_exti.c ****   */
  63:../StdPeripheralDriver/src/stm32f10x_exti.c **** 
  64:../StdPeripheralDriver/src/stm32f10x_exti.c **** /**
  65:../StdPeripheralDriver/src/stm32f10x_exti.c ****   * @}
  66:../StdPeripheralDriver/src/stm32f10x_exti.c ****   */
  67:../StdPeripheralDriver/src/stm32f10x_exti.c **** 
  68:../StdPeripheralDriver/src/stm32f10x_exti.c **** /** @defgroup EXTI_Private_FunctionPrototypes
  69:../StdPeripheralDriver/src/stm32f10x_exti.c ****   * @{
  70:../StdPeripheralDriver/src/stm32f10x_exti.c ****   */
  71:../StdPeripheralDriver/src/stm32f10x_exti.c **** 
  72:../StdPeripheralDriver/src/stm32f10x_exti.c **** /**
  73:../StdPeripheralDriver/src/stm32f10x_exti.c ****   * @}
  74:../StdPeripheralDriver/src/stm32f10x_exti.c ****   */
  75:../StdPeripheralDriver/src/stm32f10x_exti.c **** 
  76:../StdPeripheralDriver/src/stm32f10x_exti.c **** /** @defgroup EXTI_Private_Functions
  77:../StdPeripheralDriver/src/stm32f10x_exti.c ****   * @{
  78:../StdPeripheralDriver/src/stm32f10x_exti.c ****   */
  79:../StdPeripheralDriver/src/stm32f10x_exti.c **** 
  80:../StdPeripheralDriver/src/stm32f10x_exti.c **** /**
  81:../StdPeripheralDriver/src/stm32f10x_exti.c ****   * @brief  Deinitializes the EXTI peripheral registers to their default reset values.
  82:../StdPeripheralDriver/src/stm32f10x_exti.c ****   * @param  None
  83:../StdPeripheralDriver/src/stm32f10x_exti.c ****   * @retval None
  84:../StdPeripheralDriver/src/stm32f10x_exti.c ****   */
  85:../StdPeripheralDriver/src/stm32f10x_exti.c **** void EXTI_DeInit(void)
  86:../StdPeripheralDriver/src/stm32f10x_exti.c **** {
 17572              		.loc 1 86 0
 17573              		.cfi_startproc
 17574              		@ args = 0, pretend = 0, frame = 0
 17575              		@ frame_needed = 1, uses_anonymous_args = 0
 17576              		@ link register save eliminated.
 17577 0000 80B4     		push	{r7}
 17578              	.LCFI0:
 17579              		.cfi_def_cfa_offset 4
 17580 0002 00AF     		add	r7, sp, #0
 17581              		.cfi_offset 7, -4
 17582              	.LCFI1:
 17583              		.cfi_def_cfa_register 7
  87:../StdPeripheralDriver/src/stm32f10x_exti.c ****   EXTI->IMR = 0x00000000;
 17584              		.loc 1 87 0
 17585 0004 0A4B     		ldr	r3, .L2
 17586 0006 4FF00002 		mov	r2, #0
 17587 000a 1A60     		str	r2, [r3, #0]
  88:../StdPeripheralDriver/src/stm32f10x_exti.c ****   EXTI->EMR = 0x00000000;
 17588              		.loc 1 88 0
 17589 000c 084B     		ldr	r3, .L2
 17590 000e 4FF00002 		mov	r2, #0
 17591 0012 5A60     		str	r2, [r3, #4]
  89:../StdPeripheralDriver/src/stm32f10x_exti.c ****   EXTI->RTSR = 0x00000000; 
 17592              		.loc 1 89 0
 17593 0014 064B     		ldr	r3, .L2
 17594 0016 4FF00002 		mov	r2, #0
 17595 001a 9A60     		str	r2, [r3, #8]
  90:../StdPeripheralDriver/src/stm32f10x_exti.c ****   EXTI->FTSR = 0x00000000; 
 17596              		.loc 1 90 0
 17597 001c 044B     		ldr	r3, .L2
 17598 001e 4FF00002 		mov	r2, #0
 17599 0022 DA60     		str	r2, [r3, #12]
  91:../StdPeripheralDriver/src/stm32f10x_exti.c ****   EXTI->PR = 0x000FFFFF;
 17600              		.loc 1 91 0
 17601 0024 024B     		ldr	r3, .L2
 17602 0026 034A     		ldr	r2, .L2+4
 17603 0028 5A61     		str	r2, [r3, #20]
  92:../StdPeripheralDriver/src/stm32f10x_exti.c **** }
 17604              		.loc 1 92 0
 17605 002a BD46     		mov	sp, r7
 17606 002c 80BC     		pop	{r7}
 17607 002e 7047     		bx	lr
 17608              	.L3:
 17609              		.align	2
 17610              	.L2:
 17611 0030 00040140 		.word	1073808384
 17612 0034 FFFF0F00 		.word	1048575
 17613              		.cfi_endproc
 17614              	.LFE29:
 17616              		.section	.text.EXTI_Init,"ax",%progbits
 17617              		.align	2
 17618              		.global	EXTI_Init
 17619              		.thumb
 17620              		.thumb_func
 17622              	EXTI_Init:
 17623              	.LFB30:
  93:../StdPeripheralDriver/src/stm32f10x_exti.c **** 
  94:../StdPeripheralDriver/src/stm32f10x_exti.c **** /**
  95:../StdPeripheralDriver/src/stm32f10x_exti.c ****   * @brief  Initializes the EXTI peripheral according to the specified
  96:../StdPeripheralDriver/src/stm32f10x_exti.c ****   *         parameters in the EXTI_InitStruct.
  97:../StdPeripheralDriver/src/stm32f10x_exti.c ****   * @param  EXTI_InitStruct: pointer to a EXTI_InitTypeDef structure
  98:../StdPeripheralDriver/src/stm32f10x_exti.c ****   *         that contains the configuration information for the EXTI peripheral.
  99:../StdPeripheralDriver/src/stm32f10x_exti.c ****   * @retval None
 100:../StdPeripheralDriver/src/stm32f10x_exti.c ****   */
 101:../StdPeripheralDriver/src/stm32f10x_exti.c **** void EXTI_Init(EXTI_InitTypeDef* EXTI_InitStruct)
 102:../StdPeripheralDriver/src/stm32f10x_exti.c **** {
 17624              		.loc 1 102 0
 17625              		.cfi_startproc
 17626              		@ args = 0, pretend = 0, frame = 16
 17627              		@ frame_needed = 1, uses_anonymous_args = 0
 17628              		@ link register save eliminated.
 17629 0000 80B4     		push	{r7}
 17630              	.LCFI2:
 17631              		.cfi_def_cfa_offset 4
 17632 0002 85B0     		sub	sp, sp, #20
 17633              	.LCFI3:
 17634              		.cfi_def_cfa_offset 24
 17635 0004 00AF     		add	r7, sp, #0
 17636              		.cfi_offset 7, -4
 17637              	.LCFI4:
 17638              		.cfi_def_cfa_register 7
 17639 0006 7860     		str	r0, [r7, #4]
 103:../StdPeripheralDriver/src/stm32f10x_exti.c ****   uint32_t tmp = 0;
 17640              		.loc 1 103 0
 17641 0008 4FF00003 		mov	r3, #0
 17642 000c FB60     		str	r3, [r7, #12]
 104:../StdPeripheralDriver/src/stm32f10x_exti.c **** 
 105:../StdPeripheralDriver/src/stm32f10x_exti.c ****   /* Check the parameters */
 106:../StdPeripheralDriver/src/stm32f10x_exti.c ****   assert_param(IS_EXTI_MODE(EXTI_InitStruct->EXTI_Mode));
 107:../StdPeripheralDriver/src/stm32f10x_exti.c ****   assert_param(IS_EXTI_TRIGGER(EXTI_InitStruct->EXTI_Trigger));
 108:../StdPeripheralDriver/src/stm32f10x_exti.c ****   assert_param(IS_EXTI_LINE(EXTI_InitStruct->EXTI_Line));  
 109:../StdPeripheralDriver/src/stm32f10x_exti.c ****   assert_param(IS_FUNCTIONAL_STATE(EXTI_InitStruct->EXTI_LineCmd));
 110:../StdPeripheralDriver/src/stm32f10x_exti.c **** 
 111:../StdPeripheralDriver/src/stm32f10x_exti.c ****   tmp = (uint32_t)EXTI_BASE;
 17643              		.loc 1 111 0
 17644 000e 3A4B     		ldr	r3, .L8
 17645 0010 FB60     		str	r3, [r7, #12]
 112:../StdPeripheralDriver/src/stm32f10x_exti.c ****      
 113:../StdPeripheralDriver/src/stm32f10x_exti.c ****   if (EXTI_InitStruct->EXTI_LineCmd != DISABLE)
 17646              		.loc 1 113 0
 17647 0012 7B68     		ldr	r3, [r7, #4]
 17648 0014 9B79     		ldrb	r3, [r3, #6]	@ zero_extendqisi2
 17649 0016 002B     		cmp	r3, #0
 17650 0018 59D0     		beq	.L5
 114:../StdPeripheralDriver/src/stm32f10x_exti.c ****   {
 115:../StdPeripheralDriver/src/stm32f10x_exti.c ****     /* Clear EXTI line configuration */
 116:../StdPeripheralDriver/src/stm32f10x_exti.c ****     EXTI->IMR &= ~EXTI_InitStruct->EXTI_Line;
 17651              		.loc 1 116 0
 17652 001a 374B     		ldr	r3, .L8
 17653 001c 364A     		ldr	r2, .L8
 17654 001e 1168     		ldr	r1, [r2, #0]
 17655 0020 7A68     		ldr	r2, [r7, #4]
 17656 0022 1268     		ldr	r2, [r2, #0]
 17657 0024 6FEA0202 		mvn	r2, r2
 17658 0028 01EA0202 		and	r2, r1, r2
 17659 002c 1A60     		str	r2, [r3, #0]
 117:../StdPeripheralDriver/src/stm32f10x_exti.c ****     EXTI->EMR &= ~EXTI_InitStruct->EXTI_Line;
 17660              		.loc 1 117 0
 17661 002e 324B     		ldr	r3, .L8
 17662 0030 314A     		ldr	r2, .L8
 17663 0032 5168     		ldr	r1, [r2, #4]
 17664 0034 7A68     		ldr	r2, [r7, #4]
 17665 0036 1268     		ldr	r2, [r2, #0]
 17666 0038 6FEA0202 		mvn	r2, r2
 17667 003c 01EA0202 		and	r2, r1, r2
 17668 0040 5A60     		str	r2, [r3, #4]
 118:../StdPeripheralDriver/src/stm32f10x_exti.c ****     
 119:../StdPeripheralDriver/src/stm32f10x_exti.c ****     tmp += EXTI_InitStruct->EXTI_Mode;
 17669              		.loc 1 119 0
 17670 0042 7B68     		ldr	r3, [r7, #4]
 17671 0044 1B79     		ldrb	r3, [r3, #4]	@ zero_extendqisi2
 17672 0046 FA68     		ldr	r2, [r7, #12]
 17673 0048 D318     		adds	r3, r2, r3
 17674 004a FB60     		str	r3, [r7, #12]
 120:../StdPeripheralDriver/src/stm32f10x_exti.c **** 
 121:../StdPeripheralDriver/src/stm32f10x_exti.c ****     *(__IO uint32_t *) tmp |= EXTI_InitStruct->EXTI_Line;
 17675              		.loc 1 121 0
 17676 004c FB68     		ldr	r3, [r7, #12]
 17677 004e FA68     		ldr	r2, [r7, #12]
 17678 0050 1168     		ldr	r1, [r2, #0]
 17679 0052 7A68     		ldr	r2, [r7, #4]
 17680 0054 1268     		ldr	r2, [r2, #0]
 17681 0056 41EA0202 		orr	r2, r1, r2
 17682 005a 1A60     		str	r2, [r3, #0]
 122:../StdPeripheralDriver/src/stm32f10x_exti.c **** 
 123:../StdPeripheralDriver/src/stm32f10x_exti.c ****     /* Clear Rising Falling edge configuration */
 124:../StdPeripheralDriver/src/stm32f10x_exti.c ****     EXTI->RTSR &= ~EXTI_InitStruct->EXTI_Line;
 17683              		.loc 1 124 0
 17684 005c 264B     		ldr	r3, .L8
 17685 005e 264A     		ldr	r2, .L8
 17686 0060 9168     		ldr	r1, [r2, #8]
 17687 0062 7A68     		ldr	r2, [r7, #4]
 17688 0064 1268     		ldr	r2, [r2, #0]
 17689 0066 6FEA0202 		mvn	r2, r2
 17690 006a 01EA0202 		and	r2, r1, r2
 17691 006e 9A60     		str	r2, [r3, #8]
 125:../StdPeripheralDriver/src/stm32f10x_exti.c ****     EXTI->FTSR &= ~EXTI_InitStruct->EXTI_Line;
 17692              		.loc 1 125 0
 17693 0070 214B     		ldr	r3, .L8
 17694 0072 214A     		ldr	r2, .L8
 17695 0074 D168     		ldr	r1, [r2, #12]
 17696 0076 7A68     		ldr	r2, [r7, #4]
 17697 0078 1268     		ldr	r2, [r2, #0]
 17698 007a 6FEA0202 		mvn	r2, r2
 17699 007e 01EA0202 		and	r2, r1, r2
 17700 0082 DA60     		str	r2, [r3, #12]
 126:../StdPeripheralDriver/src/stm32f10x_exti.c ****     
 127:../StdPeripheralDriver/src/stm32f10x_exti.c ****     /* Select the trigger for the selected external interrupts */
 128:../StdPeripheralDriver/src/stm32f10x_exti.c ****     if (EXTI_InitStruct->EXTI_Trigger == EXTI_Trigger_Rising_Falling)
 17701              		.loc 1 128 0
 17702 0084 7B68     		ldr	r3, [r7, #4]
 17703 0086 5B79     		ldrb	r3, [r3, #5]	@ zero_extendqisi2
 17704 0088 102B     		cmp	r3, #16
 17705 008a 10D1     		bne	.L6
 129:../StdPeripheralDriver/src/stm32f10x_exti.c ****     {
 130:../StdPeripheralDriver/src/stm32f10x_exti.c ****       /* Rising Falling edge */
 131:../StdPeripheralDriver/src/stm32f10x_exti.c ****       EXTI->RTSR |= EXTI_InitStruct->EXTI_Line;
 17706              		.loc 1 131 0
 17707 008c 1A4B     		ldr	r3, .L8
 17708 008e 1A4A     		ldr	r2, .L8
 17709 0090 9168     		ldr	r1, [r2, #8]
 17710 0092 7A68     		ldr	r2, [r7, #4]
 17711 0094 1268     		ldr	r2, [r2, #0]
 17712 0096 41EA0202 		orr	r2, r1, r2
 17713 009a 9A60     		str	r2, [r3, #8]
 132:../StdPeripheralDriver/src/stm32f10x_exti.c ****       EXTI->FTSR |= EXTI_InitStruct->EXTI_Line;
 17714              		.loc 1 132 0
 17715 009c 164B     		ldr	r3, .L8
 17716 009e 164A     		ldr	r2, .L8
 17717 00a0 D168     		ldr	r1, [r2, #12]
 17718 00a2 7A68     		ldr	r2, [r7, #4]
 17719 00a4 1268     		ldr	r2, [r2, #0]
 17720 00a6 41EA0202 		orr	r2, r1, r2
 17721 00aa DA60     		str	r2, [r3, #12]
 17722 00ac 1EE0     		b	.L4
 17723              	.L6:
 133:../StdPeripheralDriver/src/stm32f10x_exti.c ****     }
 134:../StdPeripheralDriver/src/stm32f10x_exti.c ****     else
 135:../StdPeripheralDriver/src/stm32f10x_exti.c ****     {
 136:../StdPeripheralDriver/src/stm32f10x_exti.c ****       tmp = (uint32_t)EXTI_BASE;
 17724              		.loc 1 136 0
 17725 00ae 124B     		ldr	r3, .L8
 17726 00b0 FB60     		str	r3, [r7, #12]
 137:../StdPeripheralDriver/src/stm32f10x_exti.c ****       tmp += EXTI_InitStruct->EXTI_Trigger;
 17727              		.loc 1 137 0
 17728 00b2 7B68     		ldr	r3, [r7, #4]
 17729 00b4 5B79     		ldrb	r3, [r3, #5]	@ zero_extendqisi2
 17730 00b6 FA68     		ldr	r2, [r7, #12]
 17731 00b8 D318     		adds	r3, r2, r3
 17732 00ba FB60     		str	r3, [r7, #12]
 138:../StdPeripheralDriver/src/stm32f10x_exti.c **** 
 139:../StdPeripheralDriver/src/stm32f10x_exti.c ****       *(__IO uint32_t *) tmp |= EXTI_InitStruct->EXTI_Line;
 17733              		.loc 1 139 0
 17734 00bc FB68     		ldr	r3, [r7, #12]
 17735 00be FA68     		ldr	r2, [r7, #12]
 17736 00c0 1168     		ldr	r1, [r2, #0]
 17737 00c2 7A68     		ldr	r2, [r7, #4]
 17738 00c4 1268     		ldr	r2, [r2, #0]
 17739 00c6 41EA0202 		orr	r2, r1, r2
 17740 00ca 1A60     		str	r2, [r3, #0]
 17741 00cc 0EE0     		b	.L4
 17742              	.L5:
 140:../StdPeripheralDriver/src/stm32f10x_exti.c ****     }
 141:../StdPeripheralDriver/src/stm32f10x_exti.c ****   }
 142:../StdPeripheralDriver/src/stm32f10x_exti.c ****   else
 143:../StdPeripheralDriver/src/stm32f10x_exti.c ****   {
 144:../StdPeripheralDriver/src/stm32f10x_exti.c ****     tmp += EXTI_InitStruct->EXTI_Mode;
 17743              		.loc 1 144 0
 17744 00ce 7B68     		ldr	r3, [r7, #4]
 17745 00d0 1B79     		ldrb	r3, [r3, #4]	@ zero_extendqisi2
 17746 00d2 FA68     		ldr	r2, [r7, #12]
 17747 00d4 D318     		adds	r3, r2, r3
 17748 00d6 FB60     		str	r3, [r7, #12]
 145:../StdPeripheralDriver/src/stm32f10x_exti.c **** 
 146:../StdPeripheralDriver/src/stm32f10x_exti.c ****     /* Disable the selected external lines */
 147:../StdPeripheralDriver/src/stm32f10x_exti.c ****     *(__IO uint32_t *) tmp &= ~EXTI_InitStruct->EXTI_Line;
 17749              		.loc 1 147 0
 17750 00d8 FB68     		ldr	r3, [r7, #12]
 17751 00da FA68     		ldr	r2, [r7, #12]
 17752 00dc 1168     		ldr	r1, [r2, #0]
 17753 00de 7A68     		ldr	r2, [r7, #4]
 17754 00e0 1268     		ldr	r2, [r2, #0]
 17755 00e2 6FEA0202 		mvn	r2, r2
 17756 00e6 01EA0202 		and	r2, r1, r2
 17757 00ea 1A60     		str	r2, [r3, #0]
 17758              	.L4:
 148:../StdPeripheralDriver/src/stm32f10x_exti.c ****   }
 149:../StdPeripheralDriver/src/stm32f10x_exti.c **** }
 17759              		.loc 1 149 0
 17760 00ec 07F11407 		add	r7, r7, #20
 17761 00f0 BD46     		mov	sp, r7
 17762 00f2 80BC     		pop	{r7}
 17763 00f4 7047     		bx	lr
 17764              	.L9:
 17765 00f6 00BF     		.align	2
 17766              	.L8:
 17767 00f8 00040140 		.word	1073808384
 17768              		.cfi_endproc
 17769              	.LFE30:
 17771              		.section	.text.EXTI_StructInit,"ax",%progbits
 17772              		.align	2
 17773              		.global	EXTI_StructInit
 17774              		.thumb
 17775              		.thumb_func
 17777              	EXTI_StructInit:
 17778              	.LFB31:
 150:../StdPeripheralDriver/src/stm32f10x_exti.c **** 
 151:../StdPeripheralDriver/src/stm32f10x_exti.c **** /**
 152:../StdPeripheralDriver/src/stm32f10x_exti.c ****   * @brief  Fills each EXTI_InitStruct member with its reset value.
 153:../StdPeripheralDriver/src/stm32f10x_exti.c ****   * @param  EXTI_InitStruct: pointer to a EXTI_InitTypeDef structure which will
 154:../StdPeripheralDriver/src/stm32f10x_exti.c ****   *         be initialized.
 155:../StdPeripheralDriver/src/stm32f10x_exti.c ****   * @retval None
 156:../StdPeripheralDriver/src/stm32f10x_exti.c ****   */
 157:../StdPeripheralDriver/src/stm32f10x_exti.c **** void EXTI_StructInit(EXTI_InitTypeDef* EXTI_InitStruct)
 158:../StdPeripheralDriver/src/stm32f10x_exti.c **** {
 17779              		.loc 1 158 0
 17780              		.cfi_startproc
 17781              		@ args = 0, pretend = 0, frame = 8
 17782              		@ frame_needed = 1, uses_anonymous_args = 0
 17783              		@ link register save eliminated.
 17784 0000 80B4     		push	{r7}
 17785              	.LCFI5:
 17786              		.cfi_def_cfa_offset 4
 17787 0002 83B0     		sub	sp, sp, #12
 17788              	.LCFI6:
 17789              		.cfi_def_cfa_offset 16
 17790 0004 00AF     		add	r7, sp, #0
 17791              		.cfi_offset 7, -4
 17792              	.LCFI7:
 17793              		.cfi_def_cfa_register 7
 17794 0006 7860     		str	r0, [r7, #4]
 159:../StdPeripheralDriver/src/stm32f10x_exti.c ****   EXTI_InitStruct->EXTI_Line = EXTI_LINENONE;
 17795              		.loc 1 159 0
 17796 0008 7B68     		ldr	r3, [r7, #4]
 17797 000a 4FF00002 		mov	r2, #0
 17798 000e 1A60     		str	r2, [r3, #0]
 160:../StdPeripheralDriver/src/stm32f10x_exti.c ****   EXTI_InitStruct->EXTI_Mode = EXTI_Mode_Interrupt;
 17799              		.loc 1 160 0
 17800 0010 7B68     		ldr	r3, [r7, #4]
 17801 0012 4FF00002 		mov	r2, #0
 17802 0016 1A71     		strb	r2, [r3, #4]
 161:../StdPeripheralDriver/src/stm32f10x_exti.c ****   EXTI_InitStruct->EXTI_Trigger = EXTI_Trigger_Falling;
 17803              		.loc 1 161 0
 17804 0018 7B68     		ldr	r3, [r7, #4]
 17805 001a 4FF00C02 		mov	r2, #12
 17806 001e 5A71     		strb	r2, [r3, #5]
 162:../StdPeripheralDriver/src/stm32f10x_exti.c ****   EXTI_InitStruct->EXTI_LineCmd = DISABLE;
 17807              		.loc 1 162 0
 17808 0020 7B68     		ldr	r3, [r7, #4]
 17809 0022 4FF00002 		mov	r2, #0
 17810 0026 9A71     		strb	r2, [r3, #6]
 163:../StdPeripheralDriver/src/stm32f10x_exti.c **** }
 17811              		.loc 1 163 0
 17812 0028 07F10C07 		add	r7, r7, #12
 17813 002c BD46     		mov	sp, r7
 17814 002e 80BC     		pop	{r7}
 17815 0030 7047     		bx	lr
 17816              		.cfi_endproc
 17817              	.LFE31:
 17819 0032 00BF     		.section	.text.EXTI_GenerateSWInterrupt,"ax",%progbits
 17820              		.align	2
 17821              		.global	EXTI_GenerateSWInterrupt
 17822              		.thumb
 17823              		.thumb_func
 17825              	EXTI_GenerateSWInterrupt:
 17826              	.LFB32:
 164:../StdPeripheralDriver/src/stm32f10x_exti.c **** 
 165:../StdPeripheralDriver/src/stm32f10x_exti.c **** /**
 166:../StdPeripheralDriver/src/stm32f10x_exti.c ****   * @brief  Generates a Software interrupt.
 167:../StdPeripheralDriver/src/stm32f10x_exti.c ****   * @param  EXTI_Line: specifies the EXTI lines to be enabled or disabled.
 168:../StdPeripheralDriver/src/stm32f10x_exti.c ****   *   This parameter can be any combination of EXTI_Linex where x can be (0..19).
 169:../StdPeripheralDriver/src/stm32f10x_exti.c ****   * @retval None
 170:../StdPeripheralDriver/src/stm32f10x_exti.c ****   */
 171:../StdPeripheralDriver/src/stm32f10x_exti.c **** void EXTI_GenerateSWInterrupt(uint32_t EXTI_Line)
 172:../StdPeripheralDriver/src/stm32f10x_exti.c **** {
 17827              		.loc 1 172 0
 17828              		.cfi_startproc
 17829              		@ args = 0, pretend = 0, frame = 8
 17830              		@ frame_needed = 1, uses_anonymous_args = 0
 17831              		@ link register save eliminated.
 17832 0000 80B4     		push	{r7}
 17833              	.LCFI8:
 17834              		.cfi_def_cfa_offset 4
 17835 0002 83B0     		sub	sp, sp, #12
 17836              	.LCFI9:
 17837              		.cfi_def_cfa_offset 16
 17838 0004 00AF     		add	r7, sp, #0
 17839              		.cfi_offset 7, -4
 17840              	.LCFI10:
 17841              		.cfi_def_cfa_register 7
 17842 0006 7860     		str	r0, [r7, #4]
 173:../StdPeripheralDriver/src/stm32f10x_exti.c ****   /* Check the parameters */
 174:../StdPeripheralDriver/src/stm32f10x_exti.c ****   assert_param(IS_EXTI_LINE(EXTI_Line));
 175:../StdPeripheralDriver/src/stm32f10x_exti.c ****   
 176:../StdPeripheralDriver/src/stm32f10x_exti.c ****   EXTI->SWIER |= EXTI_Line;
 17843              		.loc 1 176 0
 17844 0008 054B     		ldr	r3, .L12
 17845 000a 054A     		ldr	r2, .L12
 17846 000c 1169     		ldr	r1, [r2, #16]
 17847 000e 7A68     		ldr	r2, [r7, #4]
 17848 0010 41EA0202 		orr	r2, r1, r2
 17849 0014 1A61     		str	r2, [r3, #16]
 177:../StdPeripheralDriver/src/stm32f10x_exti.c **** }
 17850              		.loc 1 177 0
 17851 0016 07F10C07 		add	r7, r7, #12
 17852 001a BD46     		mov	sp, r7
 17853 001c 80BC     		pop	{r7}
 17854 001e 7047     		bx	lr
 17855              	.L13:
 17856              		.align	2
 17857              	.L12:
 17858 0020 00040140 		.word	1073808384
 17859              		.cfi_endproc
 17860              	.LFE32:
 17862              		.section	.text.EXTI_GetFlagStatus,"ax",%progbits
 17863              		.align	2
 17864              		.global	EXTI_GetFlagStatus
 17865              		.thumb
 17866              		.thumb_func
 17868              	EXTI_GetFlagStatus:
 17869              	.LFB33:
 178:../StdPeripheralDriver/src/stm32f10x_exti.c **** 
 179:../StdPeripheralDriver/src/stm32f10x_exti.c **** /**
 180:../StdPeripheralDriver/src/stm32f10x_exti.c ****   * @brief  Checks whether the specified EXTI line flag is set or not.
 181:../StdPeripheralDriver/src/stm32f10x_exti.c ****   * @param  EXTI_Line: specifies the EXTI line flag to check.
 182:../StdPeripheralDriver/src/stm32f10x_exti.c ****   *   This parameter can be:
 183:../StdPeripheralDriver/src/stm32f10x_exti.c ****   *     @arg EXTI_Linex: External interrupt line x where x(0..19)
 184:../StdPeripheralDriver/src/stm32f10x_exti.c ****   * @retval The new state of EXTI_Line (SET or RESET).
 185:../StdPeripheralDriver/src/stm32f10x_exti.c ****   */
 186:../StdPeripheralDriver/src/stm32f10x_exti.c **** FlagStatus EXTI_GetFlagStatus(uint32_t EXTI_Line)
 187:../StdPeripheralDriver/src/stm32f10x_exti.c **** {
 17870              		.loc 1 187 0
 17871              		.cfi_startproc
 17872              		@ args = 0, pretend = 0, frame = 16
 17873              		@ frame_needed = 1, uses_anonymous_args = 0
 17874              		@ link register save eliminated.
 17875 0000 80B4     		push	{r7}
 17876              	.LCFI11:
 17877              		.cfi_def_cfa_offset 4
 17878 0002 85B0     		sub	sp, sp, #20
 17879              	.LCFI12:
 17880              		.cfi_def_cfa_offset 24
 17881 0004 00AF     		add	r7, sp, #0
 17882              		.cfi_offset 7, -4
 17883              	.LCFI13:
 17884              		.cfi_def_cfa_register 7
 17885 0006 7860     		str	r0, [r7, #4]
 188:../StdPeripheralDriver/src/stm32f10x_exti.c ****   FlagStatus bitstatus = RESET;
 17886              		.loc 1 188 0
 17887 0008 4FF00003 		mov	r3, #0
 17888 000c FB73     		strb	r3, [r7, #15]
 189:../StdPeripheralDriver/src/stm32f10x_exti.c ****   /* Check the parameters */
 190:../StdPeripheralDriver/src/stm32f10x_exti.c ****   assert_param(IS_GET_EXTI_LINE(EXTI_Line));
 191:../StdPeripheralDriver/src/stm32f10x_exti.c ****   
 192:../StdPeripheralDriver/src/stm32f10x_exti.c ****   if ((EXTI->PR & EXTI_Line) != (uint32_t)RESET)
 17889              		.loc 1 192 0
 17890 000e 0A4B     		ldr	r3, .L17
 17891 0010 5A69     		ldr	r2, [r3, #20]
 17892 0012 7B68     		ldr	r3, [r7, #4]
 17893 0014 02EA0303 		and	r3, r2, r3
 17894 0018 002B     		cmp	r3, #0
 17895 001a 03D0     		beq	.L15
 193:../StdPeripheralDriver/src/stm32f10x_exti.c ****   {
 194:../StdPeripheralDriver/src/stm32f10x_exti.c ****     bitstatus = SET;
 17896              		.loc 1 194 0
 17897 001c 4FF00103 		mov	r3, #1
 17898 0020 FB73     		strb	r3, [r7, #15]
 17899 0022 02E0     		b	.L16
 17900              	.L15:
 195:../StdPeripheralDriver/src/stm32f10x_exti.c ****   }
 196:../StdPeripheralDriver/src/stm32f10x_exti.c ****   else
 197:../StdPeripheralDriver/src/stm32f10x_exti.c ****   {
 198:../StdPeripheralDriver/src/stm32f10x_exti.c ****     bitstatus = RESET;
 17901              		.loc 1 198 0
 17902 0024 4FF00003 		mov	r3, #0
 17903 0028 FB73     		strb	r3, [r7, #15]
 17904              	.L16:
 199:../StdPeripheralDriver/src/stm32f10x_exti.c ****   }
 200:../StdPeripheralDriver/src/stm32f10x_exti.c ****   return bitstatus;
 17905              		.loc 1 200 0
 17906 002a FB7B     		ldrb	r3, [r7, #15]	@ zero_extendqisi2
 201:../StdPeripheralDriver/src/stm32f10x_exti.c **** }
 17907              		.loc 1 201 0
 17908 002c 1846     		mov	r0, r3
 17909 002e 07F11407 		add	r7, r7, #20
 17910 0032 BD46     		mov	sp, r7
 17911 0034 80BC     		pop	{r7}
 17912 0036 7047     		bx	lr
 17913              	.L18:
 17914              		.align	2
 17915              	.L17:
 17916 0038 00040140 		.word	1073808384
 17917              		.cfi_endproc
 17918              	.LFE33:
 17920              		.section	.text.EXTI_ClearFlag,"ax",%progbits
 17921              		.align	2
 17922              		.global	EXTI_ClearFlag
 17923              		.thumb
 17924              		.thumb_func
 17926              	EXTI_ClearFlag:
 17927              	.LFB34:
 202:../StdPeripheralDriver/src/stm32f10x_exti.c **** 
 203:../StdPeripheralDriver/src/stm32f10x_exti.c **** /**
 204:../StdPeripheralDriver/src/stm32f10x_exti.c ****   * @brief  Clears the EXTI's line pending flags.
 205:../StdPeripheralDriver/src/stm32f10x_exti.c ****   * @param  EXTI_Line: specifies the EXTI lines flags to clear.
 206:../StdPeripheralDriver/src/stm32f10x_exti.c ****   *   This parameter can be any combination of EXTI_Linex where x can be (0..19).
 207:../StdPeripheralDriver/src/stm32f10x_exti.c ****   * @retval None
 208:../StdPeripheralDriver/src/stm32f10x_exti.c ****   */
 209:../StdPeripheralDriver/src/stm32f10x_exti.c **** void EXTI_ClearFlag(uint32_t EXTI_Line)
 210:../StdPeripheralDriver/src/stm32f10x_exti.c **** {
 17928              		.loc 1 210 0
 17929              		.cfi_startproc
 17930              		@ args = 0, pretend = 0, frame = 8
 17931              		@ frame_needed = 1, uses_anonymous_args = 0
 17932              		@ link register save eliminated.
 17933 0000 80B4     		push	{r7}
 17934              	.LCFI14:
 17935              		.cfi_def_cfa_offset 4
 17936 0002 83B0     		sub	sp, sp, #12
 17937              	.LCFI15:
 17938              		.cfi_def_cfa_offset 16
 17939 0004 00AF     		add	r7, sp, #0
 17940              		.cfi_offset 7, -4
 17941              	.LCFI16:
 17942              		.cfi_def_cfa_register 7
 17943 0006 7860     		str	r0, [r7, #4]
 211:../StdPeripheralDriver/src/stm32f10x_exti.c ****   /* Check the parameters */
 212:../StdPeripheralDriver/src/stm32f10x_exti.c ****   assert_param(IS_EXTI_LINE(EXTI_Line));
 213:../StdPeripheralDriver/src/stm32f10x_exti.c ****   
 214:../StdPeripheralDriver/src/stm32f10x_exti.c ****   EXTI->PR = EXTI_Line;
 17944              		.loc 1 214 0
 17945 0008 034B     		ldr	r3, .L20
 17946 000a 7A68     		ldr	r2, [r7, #4]
 17947 000c 5A61     		str	r2, [r3, #20]
 215:../StdPeripheralDriver/src/stm32f10x_exti.c **** }
 17948              		.loc 1 215 0
 17949 000e 07F10C07 		add	r7, r7, #12
 17950 0012 BD46     		mov	sp, r7
 17951 0014 80BC     		pop	{r7}
 17952 0016 7047     		bx	lr
 17953              	.L21:
 17954              		.align	2
 17955              	.L20:
 17956 0018 00040140 		.word	1073808384
 17957              		.cfi_endproc
 17958              	.LFE34:
 17960              		.section	.text.EXTI_GetITStatus,"ax",%progbits
 17961              		.align	2
 17962              		.global	EXTI_GetITStatus
 17963              		.thumb
 17964              		.thumb_func
 17966              	EXTI_GetITStatus:
 17967              	.LFB35:
 216:../StdPeripheralDriver/src/stm32f10x_exti.c **** 
 217:../StdPeripheralDriver/src/stm32f10x_exti.c **** /**
 218:../StdPeripheralDriver/src/stm32f10x_exti.c ****   * @brief  Checks whether the specified EXTI line is asserted or not.
 219:../StdPeripheralDriver/src/stm32f10x_exti.c ****   * @param  EXTI_Line: specifies the EXTI line to check.
 220:../StdPeripheralDriver/src/stm32f10x_exti.c ****   *   This parameter can be:
 221:../StdPeripheralDriver/src/stm32f10x_exti.c ****   *     @arg EXTI_Linex: External interrupt line x where x(0..19)
 222:../StdPeripheralDriver/src/stm32f10x_exti.c ****   * @retval The new state of EXTI_Line (SET or RESET).
 223:../StdPeripheralDriver/src/stm32f10x_exti.c ****   */
 224:../StdPeripheralDriver/src/stm32f10x_exti.c **** ITStatus EXTI_GetITStatus(uint32_t EXTI_Line)
 225:../StdPeripheralDriver/src/stm32f10x_exti.c **** {
 17968              		.loc 1 225 0
 17969              		.cfi_startproc
 17970              		@ args = 0, pretend = 0, frame = 16
 17971              		@ frame_needed = 1, uses_anonymous_args = 0
 17972              		@ link register save eliminated.
 17973 0000 80B4     		push	{r7}
 17974              	.LCFI17:
 17975              		.cfi_def_cfa_offset 4
 17976 0002 85B0     		sub	sp, sp, #20
 17977              	.LCFI18:
 17978              		.cfi_def_cfa_offset 24
 17979 0004 00AF     		add	r7, sp, #0
 17980              		.cfi_offset 7, -4
 17981              	.LCFI19:
 17982              		.cfi_def_cfa_register 7
 17983 0006 7860     		str	r0, [r7, #4]
 226:../StdPeripheralDriver/src/stm32f10x_exti.c ****   ITStatus bitstatus = RESET;
 17984              		.loc 1 226 0
 17985 0008 4FF00003 		mov	r3, #0
 17986 000c FB73     		strb	r3, [r7, #15]
 227:../StdPeripheralDriver/src/stm32f10x_exti.c ****   uint32_t enablestatus = 0;
 17987              		.loc 1 227 0
 17988 000e 4FF00003 		mov	r3, #0
 17989 0012 BB60     		str	r3, [r7, #8]
 228:../StdPeripheralDriver/src/stm32f10x_exti.c ****   /* Check the parameters */
 229:../StdPeripheralDriver/src/stm32f10x_exti.c ****   assert_param(IS_GET_EXTI_LINE(EXTI_Line));
 230:../StdPeripheralDriver/src/stm32f10x_exti.c ****   
 231:../StdPeripheralDriver/src/stm32f10x_exti.c ****   enablestatus =  EXTI->IMR & EXTI_Line;
 17990              		.loc 1 231 0
 17991 0014 0E4B     		ldr	r3, .L25
 17992 0016 1A68     		ldr	r2, [r3, #0]
 17993 0018 7B68     		ldr	r3, [r7, #4]
 17994 001a 02EA0303 		and	r3, r2, r3
 17995 001e BB60     		str	r3, [r7, #8]
 232:../StdPeripheralDriver/src/stm32f10x_exti.c ****   if (((EXTI->PR & EXTI_Line) != (uint32_t)RESET) && (enablestatus != (uint32_t)RESET))
 17996              		.loc 1 232 0
 17997 0020 0B4B     		ldr	r3, .L25
 17998 0022 5A69     		ldr	r2, [r3, #20]
 17999 0024 7B68     		ldr	r3, [r7, #4]
 18000 0026 02EA0303 		and	r3, r2, r3
 18001 002a 002B     		cmp	r3, #0
 18002 002c 06D0     		beq	.L23
 18003              		.loc 1 232 0 is_stmt 0 discriminator 1
 18004 002e BB68     		ldr	r3, [r7, #8]
 18005 0030 002B     		cmp	r3, #0
 18006 0032 03D0     		beq	.L23
 233:../StdPeripheralDriver/src/stm32f10x_exti.c ****   {
 234:../StdPeripheralDriver/src/stm32f10x_exti.c ****     bitstatus = SET;
 18007              		.loc 1 234 0 is_stmt 1
 18008 0034 4FF00103 		mov	r3, #1
 18009 0038 FB73     		strb	r3, [r7, #15]
 18010 003a 02E0     		b	.L24
 18011              	.L23:
 235:../StdPeripheralDriver/src/stm32f10x_exti.c ****   }
 236:../StdPeripheralDriver/src/stm32f10x_exti.c ****   else
 237:../StdPeripheralDriver/src/stm32f10x_exti.c ****   {
 238:../StdPeripheralDriver/src/stm32f10x_exti.c ****     bitstatus = RESET;
 18012              		.loc 1 238 0
 18013 003c 4FF00003 		mov	r3, #0
 18014 0040 FB73     		strb	r3, [r7, #15]
 18015              	.L24:
 239:../StdPeripheralDriver/src/stm32f10x_exti.c ****   }
 240:../StdPeripheralDriver/src/stm32f10x_exti.c ****   return bitstatus;
 18016              		.loc 1 240 0
 18017 0042 FB7B     		ldrb	r3, [r7, #15]	@ zero_extendqisi2
 241:../StdPeripheralDriver/src/stm32f10x_exti.c **** }
 18018              		.loc 1 241 0
 18019 0044 1846     		mov	r0, r3
 18020 0046 07F11407 		add	r7, r7, #20
 18021 004a BD46     		mov	sp, r7
 18022 004c 80BC     		pop	{r7}
 18023 004e 7047     		bx	lr
 18024              	.L26:
 18025              		.align	2
 18026              	.L25:
 18027 0050 00040140 		.word	1073808384
 18028              		.cfi_endproc
 18029              	.LFE35:
 18031              		.section	.text.EXTI_ClearITPendingBit,"ax",%progbits
 18032              		.align	2
 18033              		.global	EXTI_ClearITPendingBit
 18034              		.thumb
 18035              		.thumb_func
 18037              	EXTI_ClearITPendingBit:
 18038              	.LFB36:
 242:../StdPeripheralDriver/src/stm32f10x_exti.c **** 
 243:../StdPeripheralDriver/src/stm32f10x_exti.c **** /**
 244:../StdPeripheralDriver/src/stm32f10x_exti.c ****   * @brief  Clears the EXTI's line pending bits.
 245:../StdPeripheralDriver/src/stm32f10x_exti.c ****   * @param  EXTI_Line: specifies the EXTI lines to clear.
 246:../StdPeripheralDriver/src/stm32f10x_exti.c ****   *   This parameter can be any combination of EXTI_Linex where x can be (0..19).
 247:../StdPeripheralDriver/src/stm32f10x_exti.c ****   * @retval None
 248:../StdPeripheralDriver/src/stm32f10x_exti.c ****   */
 249:../StdPeripheralDriver/src/stm32f10x_exti.c **** void EXTI_ClearITPendingBit(uint32_t EXTI_Line)
 250:../StdPeripheralDriver/src/stm32f10x_exti.c **** {
 18039              		.loc 1 250 0
 18040              		.cfi_startproc
 18041              		@ args = 0, pretend = 0, frame = 8
 18042              		@ frame_needed = 1, uses_anonymous_args = 0
 18043              		@ link register save eliminated.
 18044 0000 80B4     		push	{r7}
 18045              	.LCFI20:
 18046              		.cfi_def_cfa_offset 4
 18047 0002 83B0     		sub	sp, sp, #12
 18048              	.LCFI21:
 18049              		.cfi_def_cfa_offset 16
 18050 0004 00AF     		add	r7, sp, #0
 18051              		.cfi_offset 7, -4
 18052              	.LCFI22:
 18053              		.cfi_def_cfa_register 7
 18054 0006 7860     		str	r0, [r7, #4]
 251:../StdPeripheralDriver/src/stm32f10x_exti.c ****   /* Check the parameters */
 252:../StdPeripheralDriver/src/stm32f10x_exti.c ****   assert_param(IS_EXTI_LINE(EXTI_Line));
 253:../StdPeripheralDriver/src/stm32f10x_exti.c ****   
 254:../StdPeripheralDriver/src/stm32f10x_exti.c ****   EXTI->PR = EXTI_Line;
 18055              		.loc 1 254 0
 18056 0008 034B     		ldr	r3, .L28
 18057 000a 7A68     		ldr	r2, [r7, #4]
 18058 000c 5A61     		str	r2, [r3, #20]
 255:../StdPeripheralDriver/src/stm32f10x_exti.c **** }
 18059              		.loc 1 255 0
 18060 000e 07F10C07 		add	r7, r7, #12
 18061 0012 BD46     		mov	sp, r7
 18062 0014 80BC     		pop	{r7}
 18063 0016 7047     		bx	lr
 18064              	.L29:
 18065              		.align	2
 18066              	.L28:
 18067 0018 00040140 		.word	1073808384
 18068              		.cfi_endproc
 18069              	.LFE36:
 18071              		.text
 18072              	.Letext0: